(dp1
F0
(F0.5
F0.5
F0.5
F0.5
tp2
sF0.125
(F0.253
F0.24399999999999999
F0.253
F0.24399999999999999
tp3
sF0.95699999999999996
(F0.027
F0.46800000000000003
F0.027
F0.46800000000000003
tp4
sF0.21299999999999999
(F0.17899999999999999
F0.24099999999999999
F0.17899999999999999
F0.24099999999999999
tp5
sF0.80900000000000005
(F0.028000000000000001
F0.45600000000000002
F0.028000000000000001
F0.45600000000000002
tp6
sF0.5
(F0.091999999999999998
F0.26300000000000001
F0.091999999999999998
F0.26300000000000001
tp7
sF1
(F0.027
F0.46800000000000003
F0.027
F0.46800000000000003
tp8
sF0.010999999999999999
(F0.49399999999999999
F0.46899999999999997
F0.49399999999999999
F0.46899999999999997
tp9
sF0.86699999999999999
(F0.027
F0.46800000000000003
F0.027
F0.46800000000000003
tp10
sF0.78800000000000003
(F0.028000000000000001
F0.44700000000000001
F0.028000000000000001
F0.44700000000000001
tp11
sF0.996
(F0.027
F0.46800000000000003
F0.027
F0.46800000000000003
tp12
sF0.043999999999999997
(F0.40699999999999997
F0.29099999999999998
F0.40699999999999997
F0.29099999999999998
tp13
sF0.34200000000000003
(F0.124
F0.249
F0.124
F0.249
tp14
sF0.434
(F0.105
F0.25800000000000001
F0.105
F0.25800000000000001
tp15
sF0.30099999999999999
(F0.13700000000000001
F0.245
F0.13700000000000001
F0.245
tp16
sF0.76800000000000002
(F0.029000000000000001
F0.441
F0.029000000000000001
F0.441
tp17
sF0.625
(F0.039
F0.36299999999999999
F0.039
F0.36299999999999999
tp18
sF0.029999999999999999
(F0.433
F0.316
F0.433
F0.316
tp19
sF0.13800000000000001
(F0.24099999999999999
F0.24299999999999999
F0.24099999999999999
F0.24299999999999999
tp20
sF0.33500000000000002
(F0.125
F0.248
F0.125
F0.248
tp21
sF0.80700000000000005
(F0.028000000000000001
F0.45500000000000002
F0.028000000000000001
F0.45500000000000002
tp22
sF0.72899999999999998
(F0.029999999999999999
F0.42199999999999999
F0.029999999999999999
F0.42199999999999999
tp23
sF0.46700000000000003
(F0.098000000000000004
F0.26000000000000001
F0.098000000000000004
F0.26000000000000001
tp24
sF0.021999999999999999
(F0.46500000000000002
F0.373
F0.46500000000000002
F0.373
tp25
sF0.51900000000000002
(F0.070999999999999994
F0.27600000000000002
F0.070999999999999994
F0.27600000000000002
tp26
sF0.57799999999999996
(F0.048000000000000001
F0.33000000000000002
F0.048000000000000001
F0.33000000000000002
tp27
sF0.42299999999999999
(F0.106
F0.25600000000000001
F0.106
F0.25600000000000001
tp28
sF0.193
(F0.192
F0.24099999999999999
F0.192
F0.24099999999999999
tp29
sF0.80100000000000005
(F0.029000000000000001
F0.45400000000000001
F0.029000000000000001
F0.45400000000000001
tp30
sF0.88300000000000001
(F0.027
F0.46800000000000003
F0.027
F0.46800000000000003
tp31
sF0.70499999999999996
(F0.032000000000000001
F0.41199999999999998
F0.032000000000000001
F0.41199999999999998
tp32
sF0.90200000000000002
(F0.027
F0.46800000000000003
F0.027
F0.46800000000000003
tp33
sF0.0040000000000000001
(F0.5
F0.5
F0.5
F0.5
tp34
sF0.68899999999999995
(F0.033000000000000002
F0.40200000000000002
F0.033000000000000002
F0.40200000000000002
tp35
sF0.84999999999999998
(F0.027
F0.46800000000000003
F0.027
F0.46800000000000003
tp36
sF0.27000000000000002
(F0.14699999999999999
F0.24399999999999999
F0.14699999999999999
F0.24399999999999999
tp37
sF0.86299999999999999
(F0.027
F0.46800000000000003
F0.027
F0.46800000000000003
tp38
sF0.32100000000000001
(F0.13
F0.246
F0.13
F0.246
tp39
sF0.115
(F0.26600000000000001
F0.247
F0.26600000000000001
F0.247
tp40
sF0.156
(F0.221
F0.24199999999999999
F0.221
F0.24199999999999999
tp41
sF0.186
(F0.19600000000000001
F0.24199999999999999
F0.19600000000000001
F0.24199999999999999
tp42
sF0.96699999999999997
(F0.027
F0.46800000000000003
F0.027
F0.46800000000000003
tp43
sF0.14899999999999999
(F0.23000000000000001
F0.24199999999999999
F0.23000000000000001
F0.24199999999999999
tp44
sF0.874
(F0.027
F0.46800000000000003
F0.027
F0.46800000000000003
tp45
sF0.72499999999999998
(F0.032000000000000001
F0.42199999999999999
F0.032000000000000001
F0.42199999999999999
tp46
sF0.23699999999999999
(F0.16400000000000001
F0.24199999999999999
F0.16400000000000001
F0.24199999999999999
tp47
sF0.84299999999999997
(F0.027
F0.46800000000000003
F0.027
F0.46800000000000003
tp48
sF0.55200000000000005
(F0.056000000000000001
F0.309
F0.056000000000000001
F0.309
tp49
sF0.086999999999999994
(F0.312
F0.251
F0.312
F0.251
tp50
sF0.53800000000000003
(F0.062
F0.29599999999999999
F0.062
F0.29599999999999999
tp51
sF0.59699999999999998
(F0.043999999999999997
F0.34499999999999997
F0.043999999999999997
F0.34499999999999997
tp52
sF0.81499999999999995
(F0.028000000000000001
F0.45800000000000002
F0.028000000000000001
F0.45800000000000002
tp53
sF0.24399999999999999
(F0.161
F0.24199999999999999
F0.161
F0.24199999999999999
tp54
sF0.70999999999999996
(F0.033000000000000002
F0.41499999999999998
F0.033000000000000002
F0.41499999999999998
tp55
sF0.78500000000000003
(F0.028000000000000001
F0.44600000000000001
F0.028000000000000001
F0.44600000000000001
tp56
sF0.98599999999999999
(F0.027
F0.46800000000000003
F0.027
F0.46800000000000003
tp57
sF0.72999999999999998
(F0.029999999999999999
F0.42299999999999999
F0.029999999999999999
F0.42299999999999999
tp58
sF0.055
(F0.371
F0.26800000000000002
F0.371
F0.26800000000000002
tp59
sF0.56399999999999995
(F0.050999999999999997
F0.32200000000000001
F0.050999999999999997
F0.32200000000000001
tp60
sF0.66600000000000004
(F0.035999999999999997
F0.39000000000000001
F0.035999999999999997
F0.39000000000000001
tp61
sF0.997
(F0.027
F0.46800000000000003
F0.027
F0.46800000000000003
tp62
sF0.80800000000000005
(F0.028000000000000001
F0.45600000000000002
F0.028000000000000001
F0.45600000000000002
tp63
sF0.017000000000000001
(F0.48199999999999998
F0.42299999999999999
F0.48199999999999998
F0.42299999999999999
tp64
sF0.96599999999999997
(F0.027
F0.46800000000000003
F0.027
F0.46800000000000003
tp65
sF0.44900000000000001
(F0.10199999999999999
F0.25900000000000001
F0.10199999999999999
F0.25900000000000001
tp66
sF0.20699999999999999
(F0.182
F0.24199999999999999
F0.182
F0.24199999999999999
tp67
sF0.70299999999999996
(F0.032000000000000001
F0.41099999999999998
F0.032000000000000001
F0.41099999999999998
tp68
sF0.499
(F0.091999999999999998
F0.26200000000000001
F0.091999999999999998
F0.26200000000000001
tp69
sF0.76900000000000002
(F0.028000000000000001
F0.44
F0.028000000000000001
F0.44
tp70
sF0.627
(F0.039
F0.36299999999999999
F0.039
F0.36299999999999999
tp71
sF0.53000000000000003
(F0.065000000000000002
F0.28799999999999998
F0.065000000000000002
F0.28799999999999998
tp72
sF0.98299999999999998
(F0.027
F0.46800000000000003
F0.027
F0.46800000000000003
tp73
sF0.83099999999999996
(F0.028000000000000001
F0.46300000000000002
F0.028000000000000001
F0.46300000000000002
tp74
sF0.377
(F0.115
F0.252
F0.115
F0.252
tp75
sF0.112
(F0.27400000000000002
F0.249
F0.27400000000000002
F0.249
tp76
sF0.32800000000000001
(F0.128
F0.246
F0.128
F0.246
tp77
sF0.29499999999999998
(F0.13900000000000001
F0.24399999999999999
F0.13900000000000001
F0.24399999999999999
tp78
sF0.69199999999999995
(F0.034000000000000002
F0.40400000000000003
F0.034000000000000002
F0.40400000000000003
tp79
sF0.55700000000000005
(F0.053999999999999999
F0.313
F0.053999999999999999
F0.313
tp80
sF0.25600000000000001
(F0.155
F0.24299999999999999
F0.155
F0.24299999999999999
tp81
sF0.64400000000000002
(F0.036999999999999998
F0.377
F0.036999999999999998
F0.377
tp82
sF0.23300000000000001
(F0.16600000000000001
F0.24299999999999999
F0.16600000000000001
F0.24299999999999999
tp83
sF0.098000000000000004
(F0.29599999999999999
F0.25
F0.29599999999999999
F0.25
tp84
sF0.58299999999999996
(F0.045999999999999999
F0.33300000000000002
F0.045999999999999999
F0.33300000000000002
tp85
sF0.318
(F0.13300000000000001
F0.246
F0.13300000000000001
F0.246
tp86
sF0.374
(F0.11600000000000001
F0.251
F0.11600000000000001
F0.251
tp87
sF0.247
(F0.158
F0.24299999999999999
F0.158
F0.24299999999999999
tp88
sF0.90300000000000002
(F0.027
F0.46800000000000003
F0.027
F0.46800000000000003
tp89
sF0.20999999999999999
(F0.17899999999999999
F0.24099999999999999
F0.17899999999999999
F0.24099999999999999
tp90
sF0.17299999999999999
(F0.20799999999999999
F0.24199999999999999
F0.20799999999999999
F0.24199999999999999
tp91
sF0.104
(F0.28799999999999998
F0.25
F0.28799999999999998
F0.25
tp92
sF0.90800000000000003
(F0.027
F0.46800000000000003
F0.027
F0.46800000000000003
tp93
sF0.65600000000000003
(F0.035999999999999997
F0.38400000000000001
F0.035999999999999997
F0.38400000000000001
tp94
sF0.84199999999999997
(F0.029000000000000001
F0.46800000000000003
F0.029000000000000001
F0.46800000000000003
tp95
sF0.495
(F0.091999999999999998
F0.26200000000000001
F0.091999999999999998
F0.26200000000000001
tp96
sF0.074999999999999997
(F0.33100000000000002
F0.25700000000000001
F0.33100000000000002
F0.25700000000000001
tp97
sF0.10000000000000001
(F0.28799999999999998
F0.25
F0.28799999999999998
F0.25
tp98
sF0.36699999999999999
(F0.11700000000000001
F0.25
F0.11700000000000001
F0.25
tp99
sF0.622
(F0.039
F0.35999999999999999
F0.039
F0.35999999999999999
tp100
sF0.63600000000000001
(F0.036999999999999998
F0.36899999999999999
F0.036999999999999998
F0.36899999999999999
tp101
sF0.16700000000000001
(F0.21199999999999999
F0.24099999999999999
F0.21199999999999999
F0.24099999999999999
tp102
sF0.44600000000000001
(F0.10199999999999999
F0.25900000000000001
F0.10199999999999999
F0.25900000000000001
tp103
sF0.28799999999999998
(F0.14199999999999999
F0.24399999999999999
F0.14199999999999999
F0.24399999999999999
tp104
sF0.54300000000000004
(F0.059999999999999998
F0.29999999999999999
F0.059999999999999998
F0.29999999999999999
tp105
sF0.11899999999999999
(F0.26600000000000001
F0.247
F0.26600000000000001
F0.247
tp106
sF0.98699999999999999
(F0.027
F0.46800000000000003
F0.027
F0.46800000000000003
tp107
sF0.19
(F0.192
F0.24099999999999999
F0.192
F0.24099999999999999
tp108
sF0.058999999999999997
(F0.371
F0.26800000000000002
F0.371
F0.26800000000000002
tp109
sF0.48399999999999999
(F0.095000000000000001
F0.26100000000000001
F0.095000000000000001
F0.26100000000000001
tp110
sF0.26000000000000001
(F0.153
F0.24399999999999999
F0.153
F0.24399999999999999
tp111
sF0.72599999999999998
(F0.031
F0.42199999999999999
F0.031
F0.42199999999999999
tp112
sF0.46000000000000002
(F0.098000000000000004
F0.26000000000000001
F0.098000000000000004
F0.26000000000000001
tp113
sF0.746
(F0.031
F0.43099999999999999
F0.031
F0.43099999999999999
tp114
sF0.76600000000000001
(F0.029999999999999999
F0.44
F0.029999999999999999
F0.44
tp115
sF0.60199999999999998
(F0.042999999999999997
F0.34899999999999998
F0.042999999999999997
F0.34899999999999998
tp116
sF0.73299999999999998
(F0.031
F0.42499999999999999
F0.031
F0.42499999999999999
tp117
sF0.439
(F0.10299999999999999
F0.25700000000000001
F0.10299999999999999
F0.25700000000000001
tp118
sF0.41599999999999998
(F0.107
F0.25600000000000001
F0.107
F0.25600000000000001
tp119
sF0.33800000000000002
(F0.125
F0.248
F0.125
F0.248
tp120
sF0.56000000000000005
(F0.052999999999999999
F0.317
F0.052999999999999999
F0.317
tp121
sF0.066000000000000003
(F0.35099999999999998
F0.26100000000000001
F0.35099999999999998
F0.26100000000000001
tp122
sF0.81699999999999995
(F0.028000000000000001
F0.45800000000000002
F0.028000000000000001
F0.45800000000000002
tp123
sF0.11
(F0.27400000000000002
F0.249
F0.27400000000000002
F0.249
tp124
sF0.39200000000000002
(F0.112
F0.253
F0.112
F0.253
tp125
sF0.75
(F0.032000000000000001
F0.433
F0.032000000000000001
F0.433
tp126
sF0.183
(F0.20000000000000001
F0.24199999999999999
F0.20000000000000001
F0.24199999999999999
tp127
sF0.311
(F0.13400000000000001
F0.246
F0.13400000000000001
F0.246
tp128
sF0.35999999999999999
(F0.11799999999999999
F0.25
F0.11799999999999999
F0.25
tp129
sF0.72199999999999998
(F0.031
F0.41899999999999998
F0.031
F0.41899999999999998
tp130
sF0.14599999999999999
(F0.23000000000000001
F0.24199999999999999
F0.23000000000000001
F0.24199999999999999
tp131
sF0.71899999999999997
(F0.031
F0.41799999999999998
F0.031
F0.41799999999999998
tp132
sF0.34799999999999998
(F0.122
F0.249
F0.122
F0.249
tp133
sF0.67400000000000004
(F0.034000000000000002
F0.39600000000000002
F0.034000000000000002
F0.39600000000000002
tp134
sF0.40500000000000003
(F0.108
F0.254
F0.108
F0.254
tp135
sF0.89300000000000002
(F0.027
F0.46800000000000003
F0.027
F0.46800000000000003
tp136
sF0.80600000000000005
(F0.029999999999999999
F0.45500000000000002
F0.029999999999999999
F0.45500000000000002
tp137
sF0.22600000000000001
(F0.17000000000000001
F0.24299999999999999
F0.17000000000000001
F0.24299999999999999
tp138
sF0.36199999999999999
(F0.11799999999999999
F0.25
F0.11799999999999999
F0.25
tp139
sF0.71099999999999997
(F0.032000000000000001
F0.41499999999999998
F0.032000000000000001
F0.41499999999999998
tp140
sF0.93200000000000005
(F0.027
F0.46800000000000003
F0.027
F0.46800000000000003
tp141
sF0.80000000000000004
(F0.028000000000000001
F0.45300000000000001
F0.028000000000000001
F0.45300000000000001
tp142
sF0.22
(F0.17199999999999999
F0.24199999999999999
F0.17199999999999999
F0.24199999999999999
tp143
sF0.873
(F0.027
F0.46800000000000003
F0.027
F0.46800000000000003
tp144
sF0.56200000000000006
(F0.052999999999999999
F0.32000000000000001
F0.052999999999999999
F0.32000000000000001
tp145
sF0.621
(F0.039
F0.35999999999999999
F0.039
F0.35999999999999999
tp146
sF0.099000000000000005
(F0.29599999999999999
F0.25
F0.29599999999999999
F0.25
tp147
sF0.44
(F0.10299999999999999
F0.25900000000000001
F0.10299999999999999
F0.25900000000000001
tp148
sF0.69999999999999996
(F0.032000000000000001
F0.40899999999999997
F0.032000000000000001
F0.40899999999999997
tp149
sF0.626
(F0.039
F0.36299999999999999
F0.039
F0.36299999999999999
tp150
sF0.071999999999999995
(F0.34000000000000002
F0.25900000000000001
F0.34000000000000002
F0.25900000000000001
tp151
sF0.58799999999999997
(F0.044999999999999998
F0.33700000000000002
F0.044999999999999998
F0.33700000000000002
tp152
sF0.34000000000000002
(F0.124
F0.249
F0.124
F0.249
tp153
sF0.027
(F0.44800000000000001
F0.33900000000000002
F0.44800000000000001
F0.33900000000000002
tp154
sF0.65200000000000002
(F0.035999999999999997
F0.38100000000000001
F0.035999999999999997
F0.38100000000000001
tp155
sF0.82699999999999996
(F0.027
F0.46200000000000002
F0.027
F0.46200000000000002
tp156
sF0.81399999999999995
(F0.028000000000000001
F0.45700000000000002
F0.028000000000000001
F0.45700000000000002
tp157
sF0.84699999999999998
(F0.027
F0.46800000000000003
F0.027
F0.46800000000000003
tp158
sF0.32200000000000001
(F0.13
F0.246
F0.13
F0.246
tp159
sF0.38600000000000001
(F0.114
F0.253
F0.114
F0.253
tp160
sF0.11600000000000001
(F0.26600000000000001
F0.247
F0.26600000000000001
F0.247
tp161
sF0.78000000000000003
(F0.027
F0.44400000000000001
F0.027
F0.44400000000000001
tp162
sF0.98799999999999999
(F0.027
F0.46800000000000003
F0.027
F0.46800000000000003
tp163
sF0.64100000000000001
(F0.036999999999999998
F0.373
F0.036999999999999998
F0.373
tp164
sF0.64500000000000002
(F0.036999999999999998
F0.377
F0.036999999999999998
F0.377
tp165
sF0.23000000000000001
(F0.16600000000000001
F0.24299999999999999
F0.16600000000000001
F0.24299999999999999
tp166
sF0.26100000000000001
(F0.153
F0.24399999999999999
F0.153
F0.24399999999999999
tp167
sF0.16
(F0.216
F0.24099999999999999
F0.216
F0.24099999999999999
tp168
sF0.57399999999999995
(F0.048000000000000001
F0.32600000000000001
F0.048000000000000001
F0.32600000000000001
tp169
sF0.078
(F0.33100000000000002
F0.25700000000000001
F0.33100000000000002
F0.25700000000000001
tp170
sF0.96799999999999997
(F0.027
F0.46800000000000003
F0.027
F0.46800000000000003
tp171
sF0.373
(F0.11600000000000001
F0.251
F0.11600000000000001
F0.251
tp172
sF0.122
(F0.25900000000000001
F0.24399999999999999
F0.25900000000000001
F0.24399999999999999
tp173
sF0.96199999999999997
(F0.027
F0.46800000000000003
F0.027
F0.46800000000000003
tp174
sF0.28899999999999998
(F0.14199999999999999
F0.24399999999999999
F0.14199999999999999
F0.24399999999999999
tp175
sF0.505
(F0.085000000000000006
F0.26600000000000001
F0.085000000000000006
F0.26600000000000001
tp176
sF0.54800000000000004
(F0.057000000000000002
F0.30499999999999999
F0.057000000000000002
F0.30499999999999999
tp177
sF0.60699999999999998
(F0.041000000000000002
F0.35299999999999998
F0.041000000000000002
F0.35299999999999998
tp178
sF0.58199999999999996
(F0.047
F0.33200000000000002
F0.047
F0.33200000000000002
tp179
sF0.94799999999999995
(F0.027
F0.46800000000000003
F0.027
F0.46800000000000003
tp180
sF0.65700000000000003
(F0.035999999999999997
F0.38400000000000001
F0.035999999999999997
F0.38400000000000001
tp181
sF0.67700000000000005
(F0.034000000000000002
F0.39700000000000002
F0.034000000000000002
F0.39700000000000002
tp182
sF0.81599999999999995
(F0.028000000000000001
F0.45800000000000002
F0.028000000000000001
F0.45800000000000002
tp183
sF0.29899999999999999
(F0.13900000000000001
F0.24399999999999999
F0.13900000000000001
F0.24399999999999999
tp184
sF0.93300000000000005
(F0.027
F0.46800000000000003
F0.027
F0.46800000000000003
tp185
sF0.70099999999999996
(F0.032000000000000001
F0.40899999999999997
F0.032000000000000001
F0.40899999999999997
tp186
sF0.45800000000000002
(F0.099000000000000005
F0.25900000000000001
F0.099000000000000005
F0.25900000000000001
tp187
sF0.29999999999999999
(F0.13700000000000001
F0.245
F0.13700000000000001
F0.245
tp188
sF0.92900000000000005
(F0.027
F0.46800000000000003
F0.027
F0.46800000000000003
tp189
sF0.95899999999999996
(F0.027
F0.46800000000000003
F0.027
F0.46800000000000003
tp190
sF0.036999999999999998
(F0.41999999999999998
F0.30199999999999999
F0.41999999999999998
F0.30199999999999999
tp191
sF0.89400000000000002
(F0.027
F0.46800000000000003
F0.027
F0.46800000000000003
tp192
sF0.48799999999999999
(F0.094
F0.26100000000000001
F0.094
F0.26100000000000001
tp193
sF0.33300000000000002
(F0.127
F0.247
F0.127
F0.247
tp194
sF0.83499999999999996
(F0.029000000000000001
F0.46500000000000002
F0.029000000000000001
F0.46500000000000002
tp195
sF0.254
(F0.157
F0.24299999999999999
F0.157
F0.24299999999999999
tp196
sF0.33900000000000002
(F0.125
F0.248
F0.125
F0.248
tp197
sF0.94699999999999995
(F0.027
F0.46800000000000003
F0.027
F0.46800000000000003
tp198
sF0.34999999999999998
(F0.121
F0.25
F0.121
F0.25
tp199
sF0.85199999999999998
(F0.027
F0.46800000000000003
F0.027
F0.46800000000000003
tp200
sF0.92300000000000004
(F0.027
F0.46800000000000003
F0.027
F0.46800000000000003
tp201
sF0.747
(F0.031
F0.43099999999999999
F0.031
F0.43099999999999999
tp202
sF0.41999999999999998
(F0.106
F0.25600000000000001
F0.106
F0.25600000000000001
tp203
sF0.78200000000000003
(F0.027
F0.44500000000000001
F0.027
F0.44500000000000001
tp204
sF0.64200000000000002
(F0.037999999999999999
F0.375
F0.037999999999999999
F0.375
tp205
sF0.82399999999999995
(F0.028000000000000001
F0.46100000000000002
F0.028000000000000001
F0.46100000000000002
tp206
sF0.501
(F0.090999999999999998
F0.26300000000000001
F0.090999999999999998
F0.26300000000000001
tp207
sF0.98999999999999999
(F0.027
F0.46800000000000003
F0.027
F0.46800000000000003
tp208
sF0.048000000000000001
(F0.39400000000000002
F0.28100000000000003
F0.39400000000000002
F0.28100000000000003
tp209
sF0.39600000000000002
(F0.111
F0.254
F0.111
F0.254
tp210
sF0.75900000000000001
(F0.032000000000000001
F0.438
F0.032000000000000001
F0.438
tp211
sF0.47299999999999998
(F0.097000000000000003
F0.26100000000000001
F0.097000000000000003
F0.26100000000000001
tp212
sF0.28100000000000003
(F0.14399999999999999
F0.24399999999999999
F0.14399999999999999
F0.24399999999999999
tp213
sF0.19600000000000001
(F0.188
F0.23999999999999999
F0.188
F0.23999999999999999
tp214
sF0.59299999999999997
(F0.044999999999999998
F0.34100000000000003
F0.044999999999999998
F0.34100000000000003
tp215
sF0.28000000000000003
(F0.14399999999999999
F0.24399999999999999
F0.14399999999999999
F0.24399999999999999
tp216
sF0.16600000000000001
(F0.21199999999999999
F0.24099999999999999
F0.21199999999999999
F0.24099999999999999
tp217
sF0.35199999999999998
(F0.121
F0.25
F0.121
F0.25
tp218
sF0.25800000000000001
(F0.155
F0.24299999999999999
F0.155
F0.24299999999999999
tp219
sF0.45300000000000001
(F0.10100000000000001
F0.26000000000000001
F0.10100000000000001
F0.26000000000000001
tp220
sF0.309
(F0.13500000000000001
F0.245
F0.13500000000000001
F0.245
tp221
sF0.155
(F0.221
F0.24199999999999999
F0.221
F0.24199999999999999
tp222
sF0.089999999999999997
(F0.30399999999999999
F0.251
F0.30399999999999999
F0.251
tp223
sF0.78100000000000003
(F0.027
F0.44400000000000001
F0.027
F0.44400000000000001
tp224
sF0.45100000000000001
(F0.10100000000000001
F0.26000000000000001
F0.10100000000000001
F0.26000000000000001
tp225
sF0.28599999999999998
(F0.14199999999999999
F0.24399999999999999
F0.14199999999999999
F0.24399999999999999
tp226
sF0.40899999999999997
(F0.108
F0.254
F0.108
F0.254
tp227
sF0.54600000000000004
(F0.058000000000000003
F0.30299999999999999
F0.058000000000000003
F0.30299999999999999
tp228
sF0.95799999999999996
(F0.027
F0.46800000000000003
F0.027
F0.46800000000000003
tp229
sF0.95099999999999996
(F0.027
F0.46800000000000003
F0.027
F0.46800000000000003
tp230
sF0.76100000000000001
(F0.031
F0.438
F0.031
F0.438
tp231
sF0.372
(F0.11600000000000001
F0.251
F0.11600000000000001
F0.251
tp232
sF0.13
(F0.248
F0.24399999999999999
F0.248
F0.24399999999999999
tp233
sF0.70799999999999996
(F0.033000000000000002
F0.41299999999999998
F0.033000000000000002
F0.41299999999999998
tp234
sF0.93799999999999994
(F0.027
F0.46800000000000003
F0.027
F0.46800000000000003
tp235
sF0.66000000000000003
(F0.035999999999999997
F0.38600000000000001
F0.035999999999999997
F0.38600000000000001
tp236
sF0.55300000000000005
(F0.055
F0.31
F0.055
F0.31
tp237
sF0.61199999999999999
(F0.041000000000000002
F0.35599999999999998
F0.041000000000000002
F0.35599999999999998
tp238
sF0.13500000000000001
(F0.24099999999999999
F0.24299999999999999
F0.24099999999999999
F0.24299999999999999
tp239
sF0.014
(F0.49399999999999999
F0.46899999999999997
F0.49399999999999999
F0.46899999999999997
tp240
sF0.82799999999999996
(F0.027
F0.46200000000000002
F0.027
F0.46200000000000002
tp241
sF0.20599999999999999
(F0.182
F0.24199999999999999
F0.182
F0.24199999999999999
tp242
sF0.76200000000000001
(F0.029999999999999999
F0.438
F0.029999999999999999
F0.438
tp243
sF0.72299999999999998
(F0.031
F0.41999999999999998
F0.031
F0.41999999999999998
tp244
sF0.52400000000000002
(F0.068000000000000005
F0.28100000000000003
F0.068000000000000005
F0.28100000000000003
tp245
sF0.88400000000000001
(F0.027
F0.46800000000000003
F0.027
F0.46800000000000003
tp246
sF0.17599999999999999
(F0.20499999999999999
F0.24299999999999999
F0.20499999999999999
F0.24299999999999999
tp247
sF0.39800000000000002
(F0.111
F0.254
F0.111
F0.254
tp248
sF0.74299999999999999
(F0.031
F0.42999999999999999
F0.031
F0.42999999999999999
tp249
sF0.20000000000000001
(F0.185
F0.23999999999999999
F0.185
F0.23999999999999999
tp250
sF0.223
(F0.17199999999999999
F0.24199999999999999
F0.17199999999999999
F0.24199999999999999
tp251
sF0.111
(F0.27400000000000002
F0.249
F0.27400000000000002
F0.249
tp252
sF0.41099999999999998
(F0.108
F0.255
F0.108
F0.255
tp253
sF0.63800000000000001
(F0.036999999999999998
F0.37
F0.036999999999999998
F0.37
tp254
sF0.13900000000000001
(F0.24099999999999999
F0.24299999999999999
F0.24099999999999999
F0.24299999999999999
tp255
sF0.875
(F0.027
F0.46800000000000003
F0.027
F0.46800000000000003
tp256
sF0.22700000000000001
(F0.17000000000000001
F0.24299999999999999
F0.17000000000000001
F0.24299999999999999
tp257
sF0.82499999999999996
(F0.028000000000000001
F0.46100000000000002
F0.028000000000000001
F0.46100000000000002
tp258
sF0.88200000000000001
(F0.027
F0.46800000000000003
F0.027
F0.46800000000000003
tp259
sF0.095000000000000001
(F0.29599999999999999
F0.25
F0.29599999999999999
F0.25
tp260
sF0.84399999999999997
(F0.027
F0.46800000000000003
F0.027
F0.46800000000000003
tp261
sF0.48999999999999999
(F0.092999999999999999
F0.26200000000000001
F0.092999999999999999
F0.26200000000000001
tp262
sF0.76300000000000001
(F0.029999999999999999
F0.439
F0.029999999999999999
F0.439
tp263
sF0.153
(F0.22600000000000001
F0.24199999999999999
F0.22600000000000001
F0.24199999999999999
tp264
sF0.50600000000000001
(F0.084000000000000005
F0.26600000000000001
F0.084000000000000005
F0.26600000000000001
tp265
sF0.97199999999999998
(F0.027
F0.46800000000000003
F0.027
F0.46800000000000003
tp266
sF0.24099999999999999
(F0.161
F0.24199999999999999
F0.161
F0.24199999999999999
tp267
sF0.092999999999999999
(F0.30399999999999999
F0.251
F0.30399999999999999
F0.251
tp268
sF0.93600000000000005
(F0.027
F0.46800000000000003
F0.027
F0.46800000000000003
tp269
sF0.050999999999999997
(F0.38300000000000001
F0.27400000000000002
F0.38300000000000001
F0.27400000000000002
tp270
sF0.67800000000000005
(F0.034000000000000002
F0.39700000000000002
F0.034000000000000002
F0.39700000000000002
tp271
sF0.93100000000000005
(F0.027
F0.46800000000000003
F0.027
F0.46800000000000003
tp272
sF0.53900000000000003
(F0.060999999999999999
F0.29699999999999999
F0.060999999999999999
F0.29699999999999999
tp273
sF0.052999999999999999
(F0.38300000000000001
F0.27400000000000002
F0.38300000000000001
F0.27400000000000002
tp274
sF0.97899999999999998
(F0.027
F0.46800000000000003
F0.027
F0.46800000000000003
tp275
sF0.49199999999999999
(F0.092999999999999999
F0.26200000000000001
F0.092999999999999999
F0.26200000000000001
tp276
sF0.20300000000000001
(F0.185
F0.23999999999999999
F0.185
F0.23999999999999999
tp277
sF0.998
(F0.027
F0.46800000000000003
F0.027
F0.46800000000000003
tp278
sF0.46800000000000003
(F0.098000000000000004
F0.26000000000000001
F0.098000000000000004
F0.26000000000000001
tp279
sF0.61599999999999999
(F0.040000000000000001
F0.35799999999999998
F0.040000000000000001
F0.35799999999999998
tp280
sF0.29799999999999999
(F0.13900000000000001
F0.24399999999999999
F0.13900000000000001
F0.24399999999999999
tp281
sF0.81000000000000005
(F0.027
F0.45600000000000002
F0.027
F0.45600000000000002
tp282
sF0.56499999999999995
(F0.050999999999999997
F0.32300000000000001
F0.050999999999999997
F0.32300000000000001
tp283
sF0.39100000000000001
(F0.112
F0.253
F0.112
F0.253
tp284
sF0.376
(F0.115
F0.252
F0.115
F0.252
tp285
sF0.751
(F0.031
F0.434
F0.031
F0.434
tp286
sF0.42399999999999999
(F0.106
F0.25600000000000001
F0.106
F0.25600000000000001
tp287
sF0.74199999999999999
(F0.031
F0.42899999999999999
F0.031
F0.42899999999999999
tp288
sF0.083000000000000004
(F0.32100000000000001
F0.253
F0.32100000000000001
F0.253
tp289
sF0.79000000000000004
(F0.029000000000000001
F0.44800000000000001
F0.029000000000000001
F0.44800000000000001
tp290
sF0.40000000000000002
(F0.11
F0.254
F0.11
F0.254
tp291
sF0.312
(F0.13400000000000001
F0.246
F0.13400000000000001
F0.246
tp292
sF0.93899999999999995
(F0.027
F0.46800000000000003
F0.027
F0.46800000000000003
tp293
sF0.34899999999999998
(F0.122
F0.249
F0.122
F0.249
tp294
sF0.039
(F0.41999999999999998
F0.30199999999999999
F0.41999999999999998
F0.30199999999999999
tp295
sF0.90500000000000003
(F0.027
F0.46800000000000003
F0.027
F0.46800000000000003
tp296
sF0.48099999999999998
(F0.095000000000000001
F0.26100000000000001
F0.095000000000000001
F0.26100000000000001
tp297
sF0.77000000000000002
(F0.028000000000000001
F0.441
F0.028000000000000001
F0.441
tp298
sF0.755
(F0.031
F0.436
F0.031
F0.436
tp299
sF0.20200000000000001
(F0.185
F0.23999999999999999
F0.185
F0.23999999999999999
tp300
sF0.062
(F0.35999999999999999
F0.26300000000000001
F0.35999999999999999
F0.26300000000000001
tp301
sF0.129
(F0.253
F0.24399999999999999
F0.253
F0.24399999999999999
tp302
sF0.88500000000000001
(F0.027
F0.46800000000000003
F0.027
F0.46800000000000003
tp303
sF0.27500000000000002
(F0.14499999999999999
F0.24399999999999999
F0.14499999999999999
F0.24399999999999999
tp304
sF0.41299999999999998
(F0.108
F0.255
F0.108
F0.255
tp305
sF0.59399999999999997
(F0.043999999999999997
F0.34200000000000003
F0.043999999999999997
F0.34200000000000003
tp306
sF0.52500000000000002
(F0.068000000000000005
F0.28299999999999997
F0.068000000000000005
F0.28299999999999997
tp307
sF0.16300000000000001
(F0.216
F0.24099999999999999
F0.216
F0.24099999999999999
tp308
sF0.95199999999999996
(F0.027
F0.46800000000000003
F0.027
F0.46800000000000003
tp309
sF0.73899999999999999
(F0.032000000000000001
F0.42899999999999999
F0.032000000000000001
F0.42899999999999999
tp310
sF0.063
(F0.35999999999999999
F0.26300000000000001
F0.35999999999999999
F0.26300000000000001
tp311
sF0.38900000000000001
(F0.114
F0.253
F0.114
F0.253
tp312
sF0.107
(F0.28100000000000003
F0.249
F0.28100000000000003
F0.249
tp313
sF0.080000000000000002
(F0.32100000000000001
F0.253
F0.32100000000000001
F0.253
tp314
sF0.86499999999999999
(F0.027
F0.46800000000000003
F0.027
F0.46800000000000003
tp315
sF0.217
(F0.17499999999999999
F0.24199999999999999
F0.17499999999999999
F0.24199999999999999
tp316
sF0.17699999999999999
(F0.20499999999999999
F0.24299999999999999
F0.20499999999999999
F0.24299999999999999
tp317
sF0.096000000000000002
(F0.29599999999999999
F0.25
F0.29599999999999999
F0.25
tp318
sF0.35099999999999998
(F0.121
F0.25
F0.121
F0.25
tp319
sF0.66800000000000004
(F0.035000000000000003
F0.39200000000000002
F0.035000000000000003
F0.39200000000000002
tp320
sF0.63700000000000001
(F0.036999999999999998
F0.37
F0.036999999999999998
F0.37
tp321
sF0.84499999999999997
(F0.027
F0.46800000000000003
F0.027
F0.46800000000000003
tp322
sF0.11700000000000001
(F0.26600000000000001
F0.247
F0.26600000000000001
F0.247
tp323
sF0.46899999999999997
(F0.098000000000000004
F0.26000000000000001
F0.098000000000000004
F0.26000000000000001
tp324
sF0.86399999999999999
(F0.027
F0.46800000000000003
F0.027
F0.46800000000000003
tp325
sF0.46300000000000002
(F0.098000000000000004
F0.26000000000000001
F0.098000000000000004
F0.26000000000000001
tp326
sF0.42999999999999999
(F0.105
F0.25800000000000001
F0.105
F0.25800000000000001
tp327
sF0.17999999999999999
(F0.20000000000000001
F0.24199999999999999
F0.20000000000000001
F0.24199999999999999
tp328
sF0.48899999999999999
(F0.094
F0.26100000000000001
F0.094
F0.26100000000000001
tp329
sF0.65400000000000003
(F0.035000000000000003
F0.38300000000000001
F0.035000000000000003
F0.38300000000000001
tp330
sF0.53200000000000003
(F0.065000000000000002
F0.28999999999999998
F0.065000000000000002
F0.28999999999999998
tp331
sF0.61699999999999999
(F0.039
F0.35799999999999998
F0.039
F0.35799999999999998
tp332
sF0.57899999999999996
(F0.047
F0.33100000000000002
F0.047
F0.33100000000000002
tp333
sF0.79900000000000004
(F0.028000000000000001
F0.45200000000000001
F0.028000000000000001
F0.45200000000000001
tp334
sF0.012
(F0.49399999999999999
F0.46899999999999997
F0.49399999999999999
F0.46899999999999997
tp335
sF0.034000000000000002
(F0.433
F0.316
F0.433
F0.316
tp336
sF0.19700000000000001
(F0.188
F0.23999999999999999
F0.188
F0.23999999999999999
tp337
sF0.74399999999999999
(F0.031
F0.42999999999999999
F0.031
F0.42999999999999999
tp338
sF0.56899999999999995
(F0.050000000000000003
F0.32500000000000001
F0.050000000000000003
F0.32500000000000001
tp339
sF0.77600000000000002
(F0.029000000000000001
F0.443
F0.029000000000000001
F0.443
tp340
sF0.93999999999999995
(F0.027
F0.46800000000000003
F0.027
F0.46800000000000003
tp341
sF0.94899999999999995
(F0.027
F0.46800000000000003
F0.027
F0.46800000000000003
tp342
sF0.14299999999999999
(F0.23499999999999999
F0.24299999999999999
F0.23499999999999999
F0.24299999999999999
tp343
sF0.52100000000000002
(F0.070000000000000007
F0.28000000000000003
F0.070000000000000007
F0.28000000000000003
tp344
sF0.752
(F0.029999999999999999
F0.435
F0.029999999999999999
F0.435
tp345
sF0.51100000000000001
(F0.079000000000000001
F0.26900000000000002
F0.079000000000000001
F0.26900000000000002
tp346
sF0.56999999999999995
(F0.050000000000000003
F0.32500000000000001
F0.050000000000000003
F0.32500000000000001
tp347
sF0.33100000000000002
(F0.127
F0.247
F0.127
F0.247
tp348
sF0.876
(F0.027
F0.46800000000000003
F0.027
F0.46800000000000003
tp349
sF0.38400000000000001
(F0.114
F0.252
F0.114
F0.252
tp350
sF0.040000000000000001
(F0.40699999999999997
F0.29099999999999998
F0.40699999999999997
F0.29099999999999998
tp351
sF0.084000000000000005
(F0.32100000000000001
F0.253
F0.32100000000000001
F0.253
tp352
sF0.51000000000000001
(F0.080000000000000002
F0.26900000000000002
F0.080000000000000002
F0.26900000000000002
tp353
sF0.252
(F0.157
F0.24299999999999999
F0.157
F0.24299999999999999
tp354
sF0.085999999999999993
(F0.312
F0.251
F0.312
F0.251
tp355
sF0.068000000000000005
(F0.35099999999999998
F0.26100000000000001
F0.35099999999999998
F0.26100000000000001
tp356
sF0.65900000000000003
(F0.035999999999999997
F0.38500000000000001
F0.035999999999999997
F0.38500000000000001
tp357
sF0.90600000000000003
(F0.027
F0.46800000000000003
F0.027
F0.46800000000000003
tp358
sF0.056000000000000001
(F0.371
F0.26800000000000002
F0.371
F0.26800000000000002
tp359
sF0.92500000000000004
(F0.027
F0.46800000000000003
F0.027
F0.46800000000000003
tp360
sF0.187
(F0.19600000000000001
F0.24199999999999999
F0.19600000000000001
F0.24199999999999999
tp361
sF0.371
(F0.11600000000000001
F0.251
F0.11600000000000001
F0.251
tp362
sF0.14999999999999999
(F0.22600000000000001
F0.24199999999999999
F0.22600000000000001
F0.24199999999999999
tp363
sF0.248
(F0.158
F0.24299999999999999
F0.158
F0.24299999999999999
tp364
sF0.067000000000000004
(F0.35099999999999998
F0.26100000000000001
F0.35099999999999998
F0.26100000000000001
tp365
sF0.23799999999999999
(F0.16400000000000001
F0.24199999999999999
F0.16400000000000001
F0.24199999999999999
tp366
sF0.624
(F0.037999999999999999
F0.36199999999999999
F0.037999999999999999
F0.36199999999999999
tp367
sF0.88600000000000001
(F0.027
F0.46800000000000003
F0.027
F0.46800000000000003
tp368
sF0.42799999999999999
(F0.106
F0.25700000000000001
F0.106
F0.25700000000000001
tp369
sF0.14000000000000001
(F0.23499999999999999
F0.24299999999999999
F0.23499999999999999
F0.24299999999999999
tp370
sF0.58899999999999997
(F0.045999999999999999
F0.33900000000000002
F0.045999999999999999
F0.33900000000000002
tp371
sF0.84799999999999998
(F0.027
F0.46800000000000003
F0.027
F0.46800000000000003
tp372
sF0.86599999999999999
(F0.027
F0.46800000000000003
F0.027
F0.46800000000000003
tp373
sF0.61299999999999999
(F0.041000000000000002
F0.35599999999999998
F0.041000000000000002
F0.35599999999999998
tp374
sF0.29699999999999999
(F0.13900000000000001
F0.24399999999999999
F0.13900000000000001
F0.24399999999999999
tp375
sF0.88700000000000001
(F0.027
F0.46800000000000003
F0.027
F0.46800000000000003
tp376
sF0.218
(F0.17499999999999999
F0.24199999999999999
F0.17499999999999999
F0.24199999999999999
tp377
sF0.081000000000000003
(F0.32100000000000001
F0.253
F0.32100000000000001
F0.253
tp378
sF0.48499999999999999
(F0.094
F0.26100000000000001
F0.094
F0.26100000000000001
tp379
sF0.114
(F0.27400000000000002
F0.249
F0.27400000000000002
F0.249
tp380
sF0.46100000000000002
(F0.098000000000000004
F0.26000000000000001
F0.098000000000000004
F0.26000000000000001
tp381
sF0.72699999999999998
(F0.029999999999999999
F0.42199999999999999
F0.029999999999999999
F0.42199999999999999
tp382
sF0.40300000000000002
(F0.11
F0.254
F0.11
F0.254
tp383
sF0.37
(F0.11600000000000001
F0.251
F0.11600000000000001
F0.251
tp384
sF0.17399999999999999
(F0.20799999999999999
F0.24199999999999999
F0.20799999999999999
F0.24199999999999999
tp385
sF0.41699999999999998
(F0.107
F0.25600000000000001
F0.107
F0.25600000000000001
tp386
sF0.97699999999999998
(F0.027
F0.46800000000000003
F0.027
F0.46800000000000003
tp387
sF0.79200000000000004
(F0.028000000000000001
F0.44900000000000001
F0.028000000000000001
F0.44900000000000001
tp388
sF0.025999999999999999
(F0.44800000000000001
F0.33900000000000002
F0.44800000000000001
F0.33900000000000002
tp389
sF0.39300000000000002
(F0.112
F0.253
F0.112
F0.253
tp390
sF0.54900000000000004
(F0.057000000000000002
F0.30599999999999999
F0.057000000000000002
F0.30599999999999999
tp391
sF0.60799999999999998
(F0.041000000000000002
F0.35299999999999998
F0.041000000000000002
F0.35299999999999998
tp392
sF0.94999999999999996
(F0.027
F0.46800000000000003
F0.027
F0.46800000000000003
tp393
sF0.25700000000000001
(F0.155
F0.24299999999999999
F0.155
F0.24299999999999999
tp394
sF0.20399999999999999
(F0.185
F0.23999999999999999
F0.185
F0.23999999999999999
tp395
sF0.96899999999999997
(F0.027
F0.46800000000000003
F0.027
F0.46800000000000003
tp396
sF0.23400000000000001
(F0.16600000000000001
F0.24299999999999999
F0.16600000000000001
F0.24299999999999999
tp397
sF0.63500000000000001
(F0.036999999999999998
F0.36899999999999999
F0.036999999999999998
F0.36899999999999999
tp398
sF0.192
(F0.192
F0.24099999999999999
F0.192
F0.24099999999999999
tp399
sF0.26900000000000002
(F0.14999999999999999
F0.24399999999999999
F0.14999999999999999
F0.24399999999999999
tp400
sF0.77200000000000002
(F0.028000000000000001
F0.441
F0.028000000000000001
F0.441
tp401
sF0.65500000000000003
(F0.035999999999999997
F0.38400000000000001
F0.035999999999999997
F0.38400000000000001
tp402
sF0.01
(F0.49399999999999999
F0.46899999999999997
F0.49399999999999999
F0.46899999999999997
tp403
sF0.51600000000000001
(F0.074999999999999997
F0.27400000000000002
F0.074999999999999997
F0.27400000000000002
tp404
sF0.57499999999999996
(F0.049000000000000002
F0.32800000000000001
F0.049000000000000002
F0.32800000000000001
tp405
sF0.124
(F0.25900000000000001
F0.24399999999999999
F0.25900000000000001
F0.24399999999999999
tp406
sF0.21099999999999999
(F0.17899999999999999
F0.24099999999999999
F0.17899999999999999
F0.24099999999999999
tp407
sF0.88900000000000001
(F0.027
F0.46800000000000003
F0.027
F0.46800000000000003
tp408
sF0.154
(F0.22600000000000001
F0.24199999999999999
F0.22600000000000001
F0.24199999999999999
tp409
sF0.442
(F0.10299999999999999
F0.25900000000000001
F0.10299999999999999
F0.25900000000000001
tp410
sF0.92600000000000005
(F0.027
F0.46800000000000003
F0.027
F0.46800000000000003
tp411
sF0.42699999999999999
(F0.106
F0.25700000000000001
F0.106
F0.25700000000000001
tp412
sF0.93500000000000005
(F0.027
F0.46800000000000003
F0.027
F0.46800000000000003
tp413
sF0.17100000000000001
(F0.20799999999999999
F0.24199999999999999
F0.20799999999999999
F0.24199999999999999
tp414
sF0.67500000000000004
(F0.034000000000000002
F0.39600000000000002
F0.034000000000000002
F0.39600000000000002
tp415
sF0.70199999999999996
(F0.032000000000000001
F0.40999999999999998
F0.032000000000000001
F0.40999999999999998
tp416
sF0.27100000000000002
(F0.14699999999999999
F0.24399999999999999
F0.14699999999999999
F0.24399999999999999
tp417
sF0.36299999999999999
(F0.11799999999999999
F0.25
F0.11799999999999999
F0.25
tp418
sF0.24199999999999999
(F0.161
F0.24199999999999999
F0.161
F0.24199999999999999
tp419
sF0.52900000000000003
(F0.066000000000000003
F0.28699999999999998
F0.066000000000000003
F0.28699999999999998
tp420
sF0.89100000000000001
(F0.027
F0.46800000000000003
F0.027
F0.46800000000000003
tp421
sF0.90000000000000002
(F0.027
F0.46800000000000003
F0.027
F0.46800000000000003
tp422
sF0.28399999999999997
(F0.14399999999999999
F0.24399999999999999
F0.14399999999999999
F0.24399999999999999
tp423
sF0.53500000000000003
(F0.063
F0.29299999999999998
F0.063
F0.29299999999999998
tp424
sF0.13400000000000001
(F0.248
F0.24399999999999999
F0.248
F0.24399999999999999
tp425
sF0.56599999999999995
(F0.050999999999999997
F0.32300000000000001
F0.050999999999999997
F0.32300000000000001
tp426
sF0.89500000000000002
(F0.027
F0.46800000000000003
F0.027
F0.46800000000000003
tp427
sF0.749
(F0.032000000000000001
F0.433
F0.032000000000000001
F0.433
tp428
sF0.51800000000000002
(F0.071999999999999995
F0.27500000000000002
F0.071999999999999995
F0.27500000000000002
tp429
sF0.28499999999999998
(F0.14199999999999999
F0.24399999999999999
F0.14199999999999999
F0.24399999999999999
tp430
sF0.45700000000000002
(F0.099000000000000005
F0.25900000000000001
F0.099000000000000005
F0.25900000000000001
tp431
sF0.188
(F0.19600000000000001
F0.24199999999999999
F0.19600000000000001
F0.24199999999999999
tp432
sF0.63900000000000001
(F0.036999999999999998
F0.371
F0.036999999999999998
F0.371
tp433
sF0.80200000000000005
(F0.029000000000000001
F0.45400000000000001
F0.029000000000000001
F0.45400000000000001
tp434
sF0.71599999999999997
(F0.032000000000000001
F0.41699999999999998
F0.032000000000000001
F0.41699999999999998
tp435
sF0.31900000000000001
(F0.13300000000000001
F0.246
F0.13300000000000001
F0.246
tp436
sF0.47999999999999998
(F0.095000000000000001
F0.26100000000000001
F0.095000000000000001
F0.26100000000000001
tp437
sF0.61099999999999999
(F0.040000000000000001
F0.35499999999999998
F0.040000000000000001
F0.35499999999999998
tp438
sF0.17000000000000001
(F0.20799999999999999
F0.24199999999999999
F0.20799999999999999
F0.24199999999999999
tp439
sF0.97099999999999997
(F0.027
F0.46800000000000003
F0.027
F0.46800000000000003
tp440
sF0.34300000000000003
(F0.124
F0.249
F0.124
F0.249
tp441
sF0.435
(F0.10299999999999999
F0.25700000000000001
F0.10299999999999999
F0.25700000000000001
tp442
sF0.26600000000000001
(F0.14999999999999999
F0.24399999999999999
F0.14999999999999999
F0.24399999999999999
tp443
sF0.317
(F0.13300000000000001
F0.246
F0.13300000000000001
F0.246
tp444
sF0.307
(F0.13500000000000001
F0.245
F0.13500000000000001
F0.245
tp445
sF0.184
(F0.20000000000000001
F0.24199999999999999
F0.20000000000000001
F0.24199999999999999
tp446
sF0.29399999999999998
(F0.14000000000000001
F0.24399999999999999
F0.14000000000000001
F0.24399999999999999
tp447
sF0.26400000000000001
(F0.153
F0.24399999999999999
F0.153
F0.24399999999999999
tp448
sF0.35599999999999998
(F0.12
F0.25
F0.12
F0.25
tp449
sF0.55400000000000005
(F0.056000000000000001
F0.311
F0.056000000000000001
F0.311
tp450
sF0.23499999999999999
(F0.16400000000000001
F0.24199999999999999
F0.16400000000000001
F0.24199999999999999
tp451
sF0.36399999999999999
(F0.11799999999999999
F0.25
F0.11799999999999999
F0.25
tp452
sF0.75600000000000001
(F0.031
F0.436
F0.031
F0.436
tp453
sF0.064000000000000001
(F0.35999999999999999
F0.26300000000000001
F0.35999999999999999
F0.26300000000000001
tp454
sF0.51500000000000001
(F0.074999999999999997
F0.27300000000000002
F0.074999999999999997
F0.27300000000000002
tp455
sF0.65100000000000002
(F0.035999999999999997
F0.38100000000000001
F0.035999999999999997
F0.38100000000000001
tp456
sF0.10100000000000001
(F0.28799999999999998
F0.25
F0.28799999999999998
F0.25
tp457
sF0.224
(F0.17199999999999999
F0.24199999999999999
F0.17199999999999999
F0.24199999999999999
tp458
sF0.57999999999999996
(F0.047
F0.33100000000000002
F0.047
F0.33100000000000002
tp459
sF0.46500000000000002
(F0.098000000000000004
F0.26000000000000001
F0.098000000000000004
F0.26000000000000001
tp460
sF0.67100000000000004
(F0.035000000000000003
F0.39300000000000002
F0.035000000000000003
F0.39300000000000002
tp461
sF0.66300000000000003
(F0.035000000000000003
F0.38700000000000001
F0.035000000000000003
F0.38700000000000001
tp462
sF0.84599999999999997
(F0.027
F0.46800000000000003
F0.027
F0.46800000000000003
tp463
sF0.14799999999999999
(F0.23000000000000001
F0.24199999999999999
F0.23000000000000001
F0.24199999999999999
tp464
sF0.91600000000000004
(F0.027
F0.46800000000000003
F0.027
F0.46800000000000003
tp465
sF0.68700000000000006
(F0.033000000000000002
F0.40100000000000002
F0.033000000000000002
F0.40100000000000002
tp466
sF0.22800000000000001
(F0.17000000000000001
F0.24299999999999999
F0.17000000000000001
F0.24299999999999999
tp467
sF0.42099999999999999
(F0.106
F0.25600000000000001
F0.106
F0.25600000000000001
tp468
sF0.877
(F0.027
F0.46800000000000003
F0.027
F0.46800000000000003
tp469
sF0.33000000000000002
(F0.127
F0.247
F0.127
F0.247
tp470
sF0.39700000000000002
(F0.111
F0.254
F0.111
F0.254
tp471
sF0.81799999999999995
(F0.028000000000000001
F0.45900000000000002
F0.028000000000000001
F0.45900000000000002
tp472
sF0.11799999999999999
(F0.26600000000000001
F0.247
F0.26600000000000001
F0.247
tp473
sF0.33600000000000002
(F0.125
F0.248
F0.125
F0.248
tp474
sF0.30299999999999999
(F0.13700000000000001
F0.245
F0.13700000000000001
F0.245
tp475
sF0.74099999999999999
(F0.031
F0.42899999999999999
F0.031
F0.42899999999999999
tp476
sF0.85699999999999998
(F0.027
F0.46800000000000003
F0.027
F0.46800000000000003
tp477
sF0.002
(F0.5
F0.5
F0.5
F0.5
tp478
sF0.71299999999999997
(F0.032000000000000001
F0.41499999999999998
F0.032000000000000001
F0.41499999999999998
tp479
sF0.128
(F0.253
F0.24399999999999999
F0.253
F0.24399999999999999
tp480
sF0.38200000000000001
(F0.114
F0.252
F0.114
F0.252
tp481
sF0.47399999999999998
(F0.097000000000000003
F0.26100000000000001
F0.097000000000000003
F0.26100000000000001
tp482
sF0.54000000000000004
(F0.060999999999999999
F0.29699999999999999
F0.060999999999999999
F0.29699999999999999
tp483
sF0.82199999999999995
(F0.029000000000000001
F0.46000000000000002
F0.029000000000000001
F0.46000000000000002
tp484
sF0.33700000000000002
(F0.125
F0.248
F0.125
F0.248
tp485
sF0.19400000000000001
(F0.192
F0.24099999999999999
F0.192
F0.24099999999999999
tp486
sF0.314
(F0.13400000000000001
F0.246
F0.13400000000000001
F0.246
tp487
sF0.80300000000000005
(F0.029000000000000001
F0.45400000000000001
F0.029000000000000001
F0.45400000000000001
tp488
sF0.158
(F0.221
F0.24199999999999999
F0.221
F0.24199999999999999
tp489
sF0.245
(F0.158
F0.24299999999999999
F0.158
F0.24299999999999999
tp490
sF0.29099999999999998
(F0.14000000000000001
F0.24399999999999999
F0.14000000000000001
F0.24399999999999999
tp491
sF0.99299999999999999
(F0.027
F0.46800000000000003
F0.027
F0.46800000000000003
tp492
sF0.53700000000000003
(F0.062
F0.29399999999999998
F0.062
F0.29399999999999998
tp493
sF0.67600000000000005
(F0.034000000000000002
F0.39700000000000002
F0.034000000000000002
F0.39700000000000002
tp494
sF0.78300000000000003
(F0.027
F0.44500000000000001
F0.027
F0.44500000000000001
tp495
sF0.59899999999999998
(F0.043999999999999997
F0.34799999999999998
F0.043999999999999997
F0.34799999999999998
tp496
sF0.34100000000000003
(F0.124
F0.249
F0.124
F0.249
tp497
sF0.98199999999999998
(F0.027
F0.46800000000000003
F0.027
F0.46800000000000003
tp498
sF0.69899999999999995
(F0.033000000000000002
F0.40899999999999997
F0.033000000000000002
F0.40899999999999997
tp499
sF0.85099999999999998
(F0.027
F0.46800000000000003
F0.027
F0.46800000000000003
tp500
sF0.35799999999999998
(F0.12
F0.25
F0.12
F0.25
tp501
sF0.45400000000000001
(F0.10100000000000001
F0.26000000000000001
F0.10100000000000001
F0.26000000000000001
tp502
sF0.073999999999999996
(F0.34000000000000002
F0.25900000000000001
F0.34000000000000002
F0.25900000000000001
tp503
sF0.93700000000000006
(F0.027
F0.46800000000000003
F0.027
F0.46800000000000003
tp504
sF0.0080000000000000002
(F0.499
F0.496
F0.499
F0.496
tp505
sF0.375
(F0.115
F0.252
F0.115
F0.252
tp506
sF0.72399999999999998
(F0.031
F0.41999999999999998
F0.031
F0.41999999999999998
tp507
sF0.91900000000000004
(F0.027
F0.46800000000000003
F0.027
F0.46800000000000003
tp508
sF0.68799999999999994
(F0.033000000000000002
F0.40200000000000002
F0.033000000000000002
F0.40200000000000002
tp509
sF0.25
(F0.157
F0.24299999999999999
F0.157
F0.24299999999999999
tp510
sF0.52600000000000002
(F0.068000000000000005
F0.28499999999999998
F0.068000000000000005
F0.28499999999999998
tp511
sF0.049000000000000002
(F0.39400000000000002
F0.28100000000000003
F0.39400000000000002
F0.28100000000000003
tp512
sF0.69699999999999995
(F0.033000000000000002
F0.40699999999999997
F0.033000000000000002
F0.40699999999999997
tp513
sF0.91700000000000004
(F0.027
F0.46800000000000003
F0.027
F0.46800000000000003
tp514
sF0.71699999999999997
(F0.031
F0.41699999999999998
F0.031
F0.41699999999999998
tp515
sF0.70399999999999996
(F0.032000000000000001
F0.41099999999999998
F0.032000000000000001
F0.41099999999999998
tp516
sF0.070999999999999994
(F0.34000000000000002
F0.25900000000000001
F0.34000000000000002
F0.25900000000000001
tp517
sF0.85299999999999998
(F0.027
F0.46800000000000003
F0.027
F0.46800000000000003
tp518
sF0.86199999999999999
(F0.027
F0.46800000000000003
F0.027
F0.46800000000000003
tp519
sF0.55900000000000005
(F0.052999999999999999
F0.315
F0.052999999999999999
F0.315
tp520
sF0.61799999999999999
(F0.039
F0.35899999999999999
F0.039
F0.35899999999999999
tp521
sF0.92200000000000004
(F0.027
F0.46800000000000003
F0.027
F0.46800000000000003
tp522
sF0.89700000000000002
(F0.027
F0.46800000000000003
F0.027
F0.46800000000000003
tp523
sF0.92400000000000004
(F0.027
F0.46800000000000003
F0.027
F0.46800000000000003
tp524
sF0.504
(F0.086999999999999994
F0.26500000000000001
F0.086999999999999994
F0.26500000000000001
tp525
sF0.159
(F0.221
F0.24199999999999999
F0.221
F0.24199999999999999
tp526
sF0.33400000000000002
(F0.127
F0.247
F0.127
F0.247
tp527
sF0.059999999999999998
(F0.35999999999999999
F0.26300000000000001
F0.35999999999999999
F0.26300000000000001
tp528
sF0.065000000000000002
(F0.35099999999999998
F0.26100000000000001
F0.35099999999999998
F0.26100000000000001
tp529
sF0.091999999999999998
(F0.30399999999999999
F0.251
F0.30399999999999999
F0.251
tp530
sF0.36799999999999999
(F0.11700000000000001
F0.25
F0.11700000000000001
F0.25
tp531
sF0.66900000000000004
(F0.035000000000000003
F0.39300000000000002
F0.035000000000000003
F0.39300000000000002
tp532
sF0.109
(F0.28100000000000003
F0.249
F0.28100000000000003
F0.249
tp533
sF0.81100000000000005
(F0.027
F0.45600000000000002
F0.027
F0.45600000000000002
tp534
sF0.97299999999999998
(F0.027
F0.46800000000000003
F0.027
F0.46800000000000003
tp535
sF0.18099999999999999
(F0.20000000000000001
F0.24199999999999999
F0.20000000000000001
F0.24199999999999999
tp536
sF0.47799999999999998
(F0.096000000000000002
F0.26100000000000001
F0.096000000000000002
F0.26100000000000001
tp537
sF0.50700000000000001
(F0.082000000000000003
F0.26600000000000001
F0.082000000000000003
F0.26600000000000001
tp538
sF0.035999999999999997
(F0.41999999999999998
F0.30199999999999999
F0.41999999999999998
F0.30199999999999999
tp539
sF0.44700000000000001
(F0.10199999999999999
F0.25900000000000001
F0.10199999999999999
F0.25900000000000001
tp540
sF0.36899999999999999
(F0.11700000000000001
F0.25
F0.11700000000000001
F0.25
tp541
sF0.67200000000000004
(F0.035999999999999997
F0.39500000000000002
F0.035999999999999997
F0.39500000000000002
tp542
sF0.995
(F0.027
F0.46800000000000003
F0.027
F0.46800000000000003
tp543
sF0.42499999999999999
(F0.106
F0.25700000000000001
F0.106
F0.25700000000000001
tp544
sF0.40100000000000002
(F0.11
F0.254
F0.11
F0.254
tp545
sF0.27800000000000002
(F0.14499999999999999
F0.24399999999999999
F0.14499999999999999
F0.24399999999999999
tp546
sF0.032000000000000001
(F0.433
F0.316
F0.433
F0.316
tp547
sF0.98099999999999998
(F0.027
F0.46800000000000003
F0.027
F0.46800000000000003
tp548
sF0.68400000000000005
(F0.034000000000000002
F0.40000000000000002
F0.034000000000000002
F0.40000000000000002
tp549
sF0.105
(F0.28100000000000003
F0.249
F0.28100000000000003
F0.249
tp550
sF0.78400000000000003
(F0.027
F0.44500000000000001
F0.027
F0.44500000000000001
tp551
sF0.99199999999999999
(F0.027
F0.46800000000000003
F0.027
F0.46800000000000003
tp552
sF0.54500000000000004
(F0.058000000000000003
F0.30299999999999999
F0.058000000000000003
F0.30299999999999999
tp553
sF0.60399999999999998
(F0.042999999999999997
F0.34999999999999998
F0.042999999999999997
F0.34999999999999998
tp554
sF0.753
(F0.031
F0.435
F0.031
F0.435
tp555
sF0.72099999999999997
(F0.031
F0.41899999999999998
F0.031
F0.41899999999999998
tp556
sF0.019
(F0.48199999999999998
F0.42299999999999999
F0.48199999999999998
F0.42299999999999999
tp557
sF0.32900000000000001
(F0.128
F0.246
F0.128
F0.246
tp558
sF0.76400000000000001
(F0.029999999999999999
F0.439
F0.029999999999999999
F0.439
tp559
sF0.92700000000000005
(F0.027
F0.46800000000000003
F0.027
F0.46800000000000003
tp560
sF0.67300000000000004
(F0.034000000000000002
F0.39500000000000002
F0.034000000000000002
F0.39500000000000002
tp561
sF0.71399999999999997
(F0.032000000000000001
F0.41599999999999998
F0.032000000000000001
F0.41599999999999998
tp562
sF0.34599999999999997
(F0.122
F0.249
F0.122
F0.249
tp563
sF0.39400000000000002
(F0.112
F0.253
F0.112
F0.253
tp564
sF0.36099999999999999
(F0.11799999999999999
F0.25
F0.11799999999999999
F0.25
tp565
sF0.017999999999999999
(F0.48199999999999998
F0.42299999999999999
F0.48199999999999998
F0.42299999999999999
tp566
sF0.58499999999999996
(F0.045999999999999999
F0.33500000000000002
F0.045999999999999999
F0.33500000000000002
tp567
sF0.90700000000000003
(F0.027
F0.46800000000000003
F0.027
F0.46800000000000003
tp568
sF0.255
(F0.155
F0.24299999999999999
F0.155
F0.24299999999999999
tp569
sF0.070000000000000007
(F0.34000000000000002
F0.25900000000000001
F0.34000000000000002
F0.25900000000000001
tp570
sF0.28199999999999997
(F0.14399999999999999
F0.24399999999999999
F0.14399999999999999
F0.24399999999999999
tp571
sF0.47099999999999997
(F0.097000000000000003
F0.26100000000000001
F0.097000000000000003
F0.26100000000000001
tp572
sF0.057000000000000002
(F0.371
F0.26800000000000002
F0.371
F0.26800000000000002
tp573
sF0.86799999999999999
(F0.027
F0.46800000000000003
F0.027
F0.46800000000000003
tp574
sF0.191
(F0.192
F0.24099999999999999
F0.192
F0.24099999999999999
tp575
sF0.076999999999999999
(F0.33100000000000002
F0.25700000000000001
F0.33100000000000002
F0.25700000000000001
tp576
sF0.96499999999999997
(F0.027
F0.46800000000000003
F0.027
F0.46800000000000003
tp577
sF0.85799999999999998
(F0.027
F0.46800000000000003
F0.027
F0.46800000000000003
tp578
sF0.121
(F0.25900000000000001
F0.24399999999999999
F0.25900000000000001
F0.24399999999999999
tp579
sF0.623
(F0.039
F0.35999999999999999
F0.039
F0.35999999999999999
tp580
sF0.35499999999999998
(F0.12
F0.25
F0.12
F0.25
tp581
sF0.628
(F0.039
F0.36499999999999999
F0.039
F0.36499999999999999
tp582
sF0.20499999999999999
(F0.182
F0.24199999999999999
F0.182
F0.24199999999999999
tp583
sF0.64000000000000001
(F0.036999999999999998
F0.372
F0.036999999999999998
F0.372
tp584
sF0.30599999999999999
(F0.13500000000000001
F0.245
F0.13500000000000001
F0.245
tp585
sF0.77300000000000002
(F0.029000000000000001
F0.442
F0.029000000000000001
F0.442
tp586
sF0.379
(F0.115
F0.252
F0.115
F0.252
tp587
sF0.041000000000000002
(F0.40699999999999997
F0.29099999999999998
F0.40699999999999997
F0.29099999999999998
tp588
sF0.58999999999999997
(F0.044999999999999998
F0.33900000000000002
F0.044999999999999998
F0.33900000000000002
tp589
sF0.46600000000000003
(F0.098000000000000004
F0.26000000000000001
F0.098000000000000004
F0.26000000000000001
tp590
sF0.085000000000000006
(F0.312
F0.251
F0.312
F0.251
tp591
sF0.64800000000000002
(F0.036999999999999998
F0.378
F0.036999999999999998
F0.378
tp592
sF0.35699999999999998
(F0.12
F0.25
F0.12
F0.25
tp593
sF0.38700000000000001
(F0.114
F0.253
F0.114
F0.253
tp594
sF0.47899999999999998
(F0.096000000000000002
F0.26100000000000001
F0.096000000000000002
F0.26100000000000001
tp595
sF0.94299999999999995
(F0.027
F0.46800000000000003
F0.027
F0.46800000000000003
tp596
sF0.436
(F0.10299999999999999
F0.25700000000000001
F0.10299999999999999
F0.25700000000000001
tp597
sF0.82299999999999995
(F0.029000000000000001
F0.46000000000000002
F0.029000000000000001
F0.46000000000000002
tp598
sF0.71799999999999997
(F0.031
F0.41799999999999998
F0.031
F0.41799999999999998
tp599
sF0.79300000000000004
(F0.027
F0.44900000000000001
F0.027
F0.44900000000000001
tp600
sF0.13300000000000001
(F0.248
F0.24399999999999999
F0.248
F0.24399999999999999
tp601
sF0.73799999999999999
(F0.032000000000000001
F0.42799999999999999
F0.032000000000000001
F0.42799999999999999
tp602
sF0.308
(F0.13500000000000001
F0.245
F0.13500000000000001
F0.245
tp603
sF0.51200000000000001
(F0.078
F0.27100000000000002
F0.078
F0.27100000000000002
tp604
sF0.50800000000000001
(F0.082000000000000003
F0.26700000000000002
F0.082000000000000003
F0.26700000000000002
tp605
sF0.10199999999999999
(F0.28799999999999998
F0.25
F0.28799999999999998
F0.25
tp606
sF0.81899999999999995
(F0.029000000000000001
F0.45900000000000002
F0.029000000000000001
F0.45900000000000002
tp607
sF0.97999999999999998
(F0.027
F0.46800000000000003
F0.027
F0.46800000000000003
tp608
sF0.754
(F0.031
F0.436
F0.031
F0.436
tp609
sF0.82599999999999996
(F0.028000000000000001
F0.46100000000000002
F0.028000000000000001
F0.46100000000000002
tp610
sF0.496
(F0.091999999999999998
F0.26200000000000001
F0.091999999999999998
F0.26200000000000001
tp611
sF0.050000000000000003
(F0.38300000000000001
F0.27400000000000002
F0.38300000000000001
F0.27400000000000002
tp612
sF0.60899999999999999
(F0.041000000000000002
F0.35399999999999998
F0.041000000000000002
F0.35399999999999998
tp613
sF0.38100000000000001
(F0.114
F0.252
F0.114
F0.252
tp614
sF0.221
(F0.17199999999999999
F0.24199999999999999
F0.17199999999999999
F0.24199999999999999
tp615
sF0.92800000000000005
(F0.027
F0.46800000000000003
F0.027
F0.46800000000000003
tp616
sF0.20100000000000001
(F0.185
F0.23999999999999999
F0.185
F0.23999999999999999
tp617
sF0.97599999999999998
(F0.027
F0.46800000000000003
F0.027
F0.46800000000000003
tp618
sF0.83799999999999997
(F0.029999999999999999
F0.46700000000000003
F0.029999999999999999
F0.46700000000000003
tp619
sF0.16400000000000001
(F0.216
F0.24099999999999999
F0.216
F0.24099999999999999
tp620
sF0.51700000000000002
(F0.072999999999999995
F0.27400000000000002
F0.072999999999999995
F0.27400000000000002
tp621
sF0.14399999999999999
(F0.23499999999999999
F0.24299999999999999
F0.23499999999999999
F0.24299999999999999
tp622
sF0.65300000000000002
(F0.036999999999999998
F0.38300000000000001
F0.036999999999999998
F0.38300000000000001
tp623
sF0.30399999999999999
(F0.13700000000000001
F0.245
F0.13700000000000001
F0.245
tp624
sF0.30499999999999999
(F0.13500000000000001
F0.245
F0.13500000000000001
F0.245
tp625
sF0.79800000000000004
(F0.028000000000000001
F0.45200000000000001
F0.028000000000000001
F0.45200000000000001
tp626
sF0.088999999999999996
(F0.312
F0.251
F0.312
F0.251
tp627
sF0.73999999999999999
(F0.033000000000000002
F0.42899999999999999
F0.033000000000000002
F0.42899999999999999
tp628
sF0.023
(F0.46500000000000002
F0.373
F0.46500000000000002
F0.373
tp629
sF0.38
(F0.114
F0.252
F0.114
F0.252
tp630
sF0.34699999999999998
(F0.122
F0.249
F0.122
F0.249
tp631
sF0.86899999999999999
(F0.027
F0.46800000000000003
F0.027
F0.46800000000000003
tp632
sF0.48599999999999999
(F0.094
F0.26100000000000001
F0.094
F0.26100000000000001
tp633
sF0.88800000000000001
(F0.027
F0.46800000000000003
F0.027
F0.46800000000000003
tp634
sF0.27700000000000002
(F0.14499999999999999
F0.24399999999999999
F0.14499999999999999
F0.24399999999999999
tp635
sF0.42599999999999999
(F0.106
F0.25700000000000001
F0.106
F0.25700000000000001
tp636
sF0.65000000000000002
(F0.035999999999999997
F0.38
F0.035999999999999997
F0.38
tp637
sF0.157
(F0.221
F0.24199999999999999
F0.221
F0.24199999999999999
tp638
sF0.68100000000000005
(F0.034000000000000002
F0.39800000000000002
F0.034000000000000002
F0.39800000000000002
tp639
sF0.14699999999999999
(F0.23000000000000001
F0.24199999999999999
F0.23000000000000001
F0.24199999999999999
tp640
sF0.41799999999999998
(F0.107
F0.25600000000000001
F0.107
F0.25600000000000001
tp641
sF0.69399999999999995
(F0.034000000000000002
F0.40600000000000003
F0.034000000000000002
F0.40600000000000003
tp642
sF0.53600000000000003
(F0.062
F0.29399999999999998
F0.062
F0.29399999999999998
tp643
sF0.044999999999999998
(F0.39400000000000002
F0.28100000000000003
F0.39400000000000002
F0.28100000000000003
tp644
sF0.67000000000000004
(F0.035000000000000003
F0.39300000000000002
F0.035000000000000003
F0.39300000000000002
tp645
sF0.082000000000000003
(F0.32100000000000001
F0.253
F0.32100000000000001
F0.253
tp646
sF0.95999999999999996
(F0.027
F0.46800000000000003
F0.027
F0.46800000000000003
tp647
sF0.34499999999999997
(F0.122
F0.249
F0.122
F0.249
tp648
sF0.96299999999999997
(F0.027
F0.46800000000000003
F0.027
F0.46800000000000003
tp649
sF0.32700000000000001
(F0.128
F0.246
F0.128
F0.246
tp650
sF0.77500000000000002
(F0.029000000000000001
F0.443
F0.029000000000000001
F0.443
tp651
sF0.79400000000000004
(F0.027
F0.45000000000000001
F0.027
F0.45000000000000001
tp652
sF0.53400000000000003
(F0.064000000000000001
F0.29199999999999998
F0.064000000000000001
F0.29199999999999998
tp653
sF0.13700000000000001
(F0.24099999999999999
F0.24299999999999999
F0.24099999999999999
F0.24299999999999999
tp654
sF0.498
(F0.091999999999999998
F0.26200000000000001
F0.091999999999999998
F0.26200000000000001
tp655
sF0.40699999999999997
(F0.108
F0.254
F0.108
F0.254
tp656
sF0.32500000000000001
(F0.128
F0.246
F0.128
F0.246
tp657
sF0.629
(F0.037999999999999999
F0.36499999999999999
F0.037999999999999999
F0.36499999999999999
tp658
sF0.047
(F0.39400000000000002
F0.28100000000000003
F0.39400000000000002
F0.28100000000000003
tp659
sF0.57099999999999995
(F0.050000000000000003
F0.32500000000000001
F0.050000000000000003
F0.32500000000000001
tp660
sF0.64900000000000002
(F0.036999999999999998
F0.379
F0.036999999999999998
F0.379
tp661
sF0.99099999999999999
(F0.027
F0.46800000000000003
F0.027
F0.46800000000000003
tp662
sF0.30199999999999999
(F0.13700000000000001
F0.245
F0.13700000000000001
F0.245
tp663
sF0.23899999999999999
(F0.16400000000000001
F0.24199999999999999
F0.16400000000000001
F0.24199999999999999
tp664
sF0.41899999999999998
(F0.107
F0.25600000000000001
F0.107
F0.25600000000000001
tp665
sF0.55500000000000005
(F0.055
F0.312
F0.055
F0.312
tp666
sF0.053999999999999999
(F0.38300000000000001
F0.27400000000000002
F0.38300000000000001
F0.27400000000000002
tp667
sF0.91500000000000004
(F0.027
F0.46800000000000003
F0.027
F0.46800000000000003
tp668
sF0.215
(F0.17499999999999999
F0.24199999999999999
F0.17499999999999999
F0.24199999999999999
tp669
sF0.89800000000000002
(F0.027
F0.46800000000000003
F0.027
F0.46800000000000003
tp670
sF0.879
(F0.027
F0.46800000000000003
F0.027
F0.46800000000000003
tp671
sF0.315
(F0.13300000000000001
F0.246
F0.13300000000000001
F0.246
tp672
sF0.52200000000000002
(F0.069000000000000006
F0.28000000000000003
F0.069000000000000006
F0.28000000000000003
tp673
sF0.90900000000000003
(F0.027
F0.46800000000000003
F0.027
F0.46800000000000003
tp674
sF0.23200000000000001
(F0.16600000000000001
F0.24299999999999999
F0.16600000000000001
F0.24299999999999999
tp675
sF0.54400000000000004
(F0.058999999999999997
F0.29999999999999999
F0.058999999999999997
F0.29999999999999999
tp676
sF0.878
(F0.027
F0.46800000000000003
F0.027
F0.46800000000000003
tp677
sF0.52000000000000002
(F0.070999999999999994
F0.27900000000000003
F0.070999999999999994
F0.27900000000000003
tp678
sF0.17799999999999999
(F0.20499999999999999
F0.24299999999999999
F0.20499999999999999
F0.24299999999999999
tp679
sF0.0050000000000000001
(F0.499
F0.496
F0.499
F0.496
tp680
sF0.28699999999999998
(F0.14199999999999999
F0.24399999999999999
F0.14199999999999999
F0.24399999999999999
tp681
sF0.83899999999999997
(F0.031
F0.46700000000000003
F0.031
F0.46700000000000003
tp682
sF0.999
(F0.027
F0.46800000000000003
F0.027
F0.46800000000000003
tp683
sF0.50900000000000001
(F0.080000000000000002
F0.26800000000000002
F0.080000000000000002
F0.26800000000000002
tp684
sF0.19500000000000001
(F0.188
F0.23999999999999999
F0.188
F0.23999999999999999
tp685
sF0.39900000000000002
(F0.111
F0.254
F0.111
F0.254
tp686
sF0.49099999999999999
(F0.092999999999999999
F0.26200000000000001
F0.092999999999999999
F0.26200000000000001
tp687
sF0.44400000000000001
(F0.10299999999999999
F0.25900000000000001
F0.10299999999999999
F0.25900000000000001
tp688
sF0.14099999999999999
(F0.23499999999999999
F0.24299999999999999
F0.23499999999999999
F0.24299999999999999
tp689
sF0.41399999999999998
(F0.108
F0.255
F0.108
F0.255
tp690
sF0.46400000000000002
(F0.098000000000000004
F0.26000000000000001
F0.098000000000000004
F0.26000000000000001
tp691
sF0.54100000000000004
(F0.060999999999999999
F0.29899999999999999
F0.060999999999999999
F0.29899999999999999
tp692
sF0.59999999999999998
(F0.043999999999999997
F0.34899999999999998
F0.043999999999999997
F0.34899999999999998
tp693
sF0.748
(F0.032000000000000001
F0.432
F0.032000000000000001
F0.432
tp694
sF0.316
(F0.13300000000000001
F0.246
F0.13300000000000001
F0.246
tp695
sF0.96999999999999997
(F0.027
F0.46800000000000003
F0.027
F0.46800000000000003
tp696
sF0.19800000000000001
(F0.188
F0.23999999999999999
F0.188
F0.23999999999999999
tp697
sF0.97799999999999998
(F0.027
F0.46800000000000003
F0.027
F0.46800000000000003
tp698
sF0.78900000000000003
(F0.029000000000000001
F0.44800000000000001
F0.029000000000000001
F0.44800000000000001
tp699
sF0.161
(F0.216
F0.24099999999999999
F0.216
F0.24099999999999999
tp700
sF0.76500000000000001
(F0.029999999999999999
F0.439
F0.029999999999999999
F0.439
tp701
sF0.249
(F0.158
F0.24299999999999999
F0.158
F0.24299999999999999
tp702
sF0.127
(F0.253
F0.24399999999999999
F0.253
F0.24399999999999999
tp703
sF0.56699999999999995
(F0.050999999999999997
F0.32400000000000001
F0.050999999999999997
F0.32400000000000001
tp704
sF0.21199999999999999
(F0.17899999999999999
F0.24099999999999999
F0.17899999999999999
F0.24099999999999999
tp705
sF0.91800000000000004
(F0.027
F0.46800000000000003
F0.027
F0.46800000000000003
tp706
sF0.73699999999999999
(F0.032000000000000001
F0.42799999999999999
F0.032000000000000001
F0.42799999999999999
tp707
sF0.17499999999999999
(F0.20499999999999999
F0.24299999999999999
F0.20499999999999999
F0.24299999999999999
tp708
sF0.80400000000000005
(F0.029000000000000001
F0.45400000000000001
F0.029000000000000001
F0.45400000000000001
tp709
sF0.246
(F0.158
F0.24299999999999999
F0.158
F0.24299999999999999
tp710
sF0.745
(F0.031
F0.43099999999999999
F0.031
F0.43099999999999999
tp711
sF0.438
(F0.10299999999999999
F0.25700000000000001
F0.10299999999999999
F0.25700000000000001
tp712
sF0.42199999999999999
(F0.106
F0.25600000000000001
F0.106
F0.25600000000000001
tp713
sF0.91300000000000003
(F0.027
F0.46800000000000003
F0.027
F0.46800000000000003
tp714
sF0.70599999999999996
(F0.033000000000000002
F0.41199999999999998
F0.033000000000000002
F0.41199999999999998
tp715
sF0.60099999999999998
(F0.043999999999999997
F0.34899999999999998
F0.043999999999999997
F0.34899999999999998
tp716
sF0.069000000000000006
(F0.35099999999999998
F0.26100000000000001
F0.35099999999999998
F0.26100000000000001
tp717
sF0.81999999999999995
(F0.029000000000000001
F0.45900000000000002
F0.029000000000000001
F0.45900000000000002
tp718
sF0.872
(F0.027
F0.46800000000000003
F0.027
F0.46800000000000003
tp719
sF0.26700000000000002
(F0.14999999999999999
F0.24399999999999999
F0.14999999999999999
F0.24399999999999999
tp720
sF0.35899999999999999
(F0.12
F0.25
F0.12
F0.25
tp721
sF0.035000000000000003
(F0.41999999999999998
F0.30199999999999999
F0.41999999999999998
F0.30199999999999999
tp722
sF0.83999999999999997
(F0.031
F0.46800000000000003
F0.031
F0.46800000000000003
tp723
sF0.20899999999999999
(F0.182
F0.24199999999999999
F0.182
F0.24199999999999999
tp724
sF0.66500000000000004
(F0.035999999999999997
F0.38900000000000001
F0.035999999999999997
F0.38900000000000001
tp725
sF0.89900000000000002
(F0.027
F0.46800000000000003
F0.027
F0.46800000000000003
tp726
sF0.77100000000000002
(F0.028000000000000001
F0.441
F0.028000000000000001
F0.441
tp727
sF0.68500000000000005
(F0.034000000000000002
F0.40100000000000002
F0.034000000000000002
F0.40100000000000002
tp728
sF0.91200000000000003
(F0.027
F0.46800000000000003
F0.027
F0.46800000000000003
tp729
sF0.71499999999999997
(F0.032000000000000001
F0.41699999999999998
F0.032000000000000001
F0.41699999999999998
tp730
sF0.81299999999999994
(F0.027
F0.45700000000000002
F0.027
F0.45700000000000002
tp731
sF0.52700000000000002
(F0.067000000000000004
F0.28599999999999998
F0.067000000000000004
F0.28599999999999998
tp732
sF0.58599999999999997
(F0.045999999999999999
F0.33500000000000002
F0.045999999999999999
F0.33500000000000002
tp733
sF0.0089999999999999993
(F0.499
F0.496
F0.499
F0.496
tp734
sF0.0070000000000000001
(F0.499
F0.496
F0.499
F0.496
tp735
sF0.66700000000000004
(F0.035999999999999997
F0.39100000000000001
F0.035999999999999997
F0.39100000000000001
tp736
sF0.432
(F0.105
F0.25800000000000001
F0.105
F0.25800000000000001
tp737
sF0.89600000000000002
(F0.027
F0.46800000000000003
F0.027
F0.46800000000000003
tp738
sF0.17199999999999999
(F0.20799999999999999
F0.24199999999999999
F0.20799999999999999
F0.24199999999999999
tp739
sF0.61899999999999999
(F0.039
F0.35899999999999999
F0.039
F0.35899999999999999
tp740
sF0.73499999999999999
(F0.031
F0.42599999999999999
F0.031
F0.42599999999999999
tp741
sF0.38500000000000001
(F0.114
F0.253
F0.114
F0.253
tp742
sF0.85899999999999999
(F0.027
F0.46800000000000003
F0.027
F0.46800000000000003
tp743
sF0.63
(F0.037999999999999999
F0.36599999999999999
F0.037999999999999999
F0.36599999999999999
tp744
sF0.53100000000000003
(F0.066000000000000003
F0.28899999999999998
F0.066000000000000003
F0.28899999999999998
tp745
sF0.189
(F0.19600000000000001
F0.24199999999999999
F0.19600000000000001
F0.24199999999999999
tp746
sF0.26800000000000002
(F0.14999999999999999
F0.24399999999999999
F0.14999999999999999
F0.24399999999999999
tp747
sF0.79500000000000004
(F0.027
F0.45000000000000001
F0.027
F0.45000000000000001
tp748
sF0.029000000000000001
(F0.44800000000000001
F0.33900000000000002
F0.44800000000000001
F0.33900000000000002
tp749
sF0.43099999999999999
(F0.105
F0.25800000000000001
F0.105
F0.25800000000000001
tp750
sF0.222
(F0.17199999999999999
F0.24199999999999999
F0.17199999999999999
F0.24199999999999999
tp751
sF0.69299999999999995
(F0.034000000000000002
F0.40500000000000003
F0.034000000000000002
F0.40500000000000003
tp752
sF0.185
(F0.19600000000000001
F0.24199999999999999
F0.19600000000000001
F0.24199999999999999
tp753
sF0.29599999999999999
(F0.13900000000000001
F0.24399999999999999
F0.13900000000000001
F0.24399999999999999
tp754
sF0.99399999999999999
(F0.027
F0.46800000000000003
F0.027
F0.46800000000000003
tp755
sF0.80500000000000005
(F0.029999999999999999
F0.45500000000000002
F0.029999999999999999
F0.45500000000000002
tp756
sF0.23599999999999999
(F0.16400000000000001
F0.24199999999999999
F0.16400000000000001
F0.24199999999999999
tp757
sF0.087999999999999995
(F0.312
F0.251
F0.312
F0.251
tp758
sF0.037999999999999999
(F0.41999999999999998
F0.30199999999999999
F0.41999999999999998
F0.30199999999999999
tp759
sF0.251
(F0.157
F0.24299999999999999
F0.157
F0.24299999999999999
tp760
sF0.97399999999999998
(F0.027
F0.46800000000000003
F0.027
F0.46800000000000003
tp761
sF0.70699999999999996
(F0.033000000000000002
F0.41299999999999998
F0.033000000000000002
F0.41299999999999998
tp762
sF0.51300000000000001
(F0.076999999999999999
F0.27200000000000002
F0.076999999999999999
F0.27200000000000002
tp763
sF0.57199999999999995
(F0.049000000000000002
F0.32500000000000001
F0.049000000000000002
F0.32500000000000001
tp764
sF0.028000000000000001
(F0.44800000000000001
F0.33900000000000002
F0.44800000000000001
F0.33900000000000002
tp765
sF0.16900000000000001
(F0.21199999999999999
F0.24099999999999999
F0.21199999999999999
F0.24099999999999999
tp766
sF0.94199999999999995
(F0.027
F0.46800000000000003
F0.027
F0.46800000000000003
tp767
sF0.95399999999999996
(F0.027
F0.46800000000000003
F0.027
F0.46800000000000003
tp768
sF0.433
(F0.105
F0.25800000000000001
F0.105
F0.25800000000000001
tp769
sF0.014999999999999999
(F0.48199999999999998
F0.42299999999999999
F0.48199999999999998
F0.42299999999999999
tp770
sF0.60499999999999998
(F0.042000000000000003
F0.35099999999999998
F0.042000000000000003
F0.35099999999999998
tp771
sF0.92000000000000004
(F0.027
F0.46800000000000003
F0.027
F0.46800000000000003
tp772
sF0.378
(F0.115
F0.252
F0.115
F0.252
tp773
sF0.63100000000000001
(F0.037999999999999999
F0.36699999999999999
F0.037999999999999999
F0.36699999999999999
tp774
sF0.033000000000000002
(F0.433
F0.316
F0.433
F0.316
tp775
sF0.69099999999999995
(F0.033000000000000002
F0.40300000000000002
F0.033000000000000002
F0.40300000000000002
tp776
sF0.33200000000000002
(F0.127
F0.247
F0.127
F0.247
tp777
sF0.106
(F0.28100000000000003
F0.249
F0.28100000000000003
F0.249
tp778
sF0.83599999999999997
(F0.029000000000000001
F0.46500000000000002
F0.029000000000000001
F0.46500000000000002
tp779
sF0.85599999999999998
(F0.027
F0.46800000000000003
F0.027
F0.46800000000000003
tp780
sF0.90400000000000003
(F0.027
F0.46800000000000003
F0.027
F0.46800000000000003
tp781
sF0.62
(F0.039
F0.35899999999999999
F0.039
F0.35899999999999999
tp782
sF0.46999999999999997
(F0.097000000000000003
F0.26100000000000001
F0.097000000000000003
F0.26100000000000001
tp783
sF0.058000000000000003
(F0.371
F0.26800000000000002
F0.371
F0.26800000000000002
tp784
sF0.59099999999999997
(F0.044999999999999998
F0.33900000000000002
F0.044999999999999998
F0.33900000000000002
tp785
sF0.82099999999999995
(F0.029000000000000001
F0.46000000000000002
F0.029000000000000001
F0.46000000000000002
tp786
sF0.26500000000000001
(F0.14999999999999999
F0.24399999999999999
F0.14999999999999999
F0.24399999999999999
tp787
sF0.079000000000000001
(F0.33100000000000002
F0.25700000000000001
F0.33100000000000002
F0.25700000000000001
tp788
sF0.123
(F0.25900000000000001
F0.24399999999999999
F0.25900000000000001
F0.24399999999999999
tp789
sF0.84899999999999998
(F0.027
F0.46800000000000003
F0.027
F0.46800000000000003
tp790
sF0.29299999999999998
(F0.14000000000000001
F0.24399999999999999
F0.14000000000000001
F0.24399999999999999
tp791
sF0.73399999999999999
(F0.031
F0.42499999999999999
F0.031
F0.42499999999999999
tp792
sF0.042999999999999997
(F0.40699999999999997
F0.29099999999999998
F0.40699999999999997
F0.29099999999999998
tp793
sF0.68600000000000005
(F0.034000000000000002
F0.40100000000000002
F0.034000000000000002
F0.40100000000000002
tp794
sF0.69599999999999995
(F0.033000000000000002
F0.40600000000000003
F0.033000000000000002
F0.40600000000000003
tp795
sF0.64600000000000002
(F0.036999999999999998
F0.377
F0.036999999999999998
F0.377
tp796
sF0.36599999999999999
(F0.11700000000000001
F0.25
F0.11700000000000001
F0.25
tp797
sF0.48299999999999998
(F0.095000000000000001
F0.26100000000000001
F0.095000000000000001
F0.26100000000000001
tp798
sF0.63200000000000001
(F0.037999999999999999
F0.36699999999999999
F0.037999999999999999
F0.36699999999999999
tp799
sF0.79100000000000004
(F0.029000000000000001
F0.44900000000000001
F0.029000000000000001
F0.44900000000000001
tp800
sF0.40400000000000003
(F0.11
F0.254
F0.11
F0.254
tp801
sF0.031
(F0.433
F0.316
F0.433
F0.316
tp802
sF0.59799999999999998
(F0.043999999999999997
F0.34699999999999998
F0.043999999999999997
F0.34699999999999998
tp803
sF0.45900000000000002
(F0.099000000000000005
F0.25900000000000001
F0.099000000000000005
F0.25900000000000001
tp804
sF0.025000000000000001
(F0.44800000000000001
F0.33900000000000002
F0.44800000000000001
F0.33900000000000002
tp805
sF0.96399999999999997
(F0.027
F0.46800000000000003
F0.027
F0.46800000000000003
tp806
sF0.55000000000000004
(F0.056000000000000001
F0.307
F0.056000000000000001
F0.307
tp807
sF0.45000000000000001
(F0.10100000000000001
F0.26000000000000001
F0.10100000000000001
F0.26000000000000001
tp808
sF0.072999999999999995
(F0.34000000000000002
F0.25900000000000001
F0.34000000000000002
F0.25900000000000001
tp809
sF0.29199999999999998
(F0.14000000000000001
F0.24399999999999999
F0.14000000000000001
F0.24399999999999999
tp810
sF0.76700000000000002
(F0.029999999999999999
F0.44
F0.029999999999999999
F0.44
tp811
sF0.78600000000000003
(F0.028000000000000001
F0.44600000000000001
F0.028000000000000001
F0.44600000000000001
tp812
sF0.71199999999999997
(F0.032000000000000001
F0.41499999999999998
F0.032000000000000001
F0.41499999999999998
tp813
sF0.73599999999999999
(F0.032000000000000001
F0.42699999999999999
F0.032000000000000001
F0.42699999999999999
tp814
sF0.94399999999999995
(F0.027
F0.46800000000000003
F0.027
F0.46800000000000003
tp815
sF0.83399999999999996
(F0.029000000000000001
F0.46500000000000002
F0.029000000000000001
F0.46500000000000002
tp816
sF0.66400000000000003
(F0.035999999999999997
F0.38900000000000001
F0.035999999999999997
F0.38900000000000001
tp817
sF0.0030000000000000001
(F0.5
F0.5
F0.5
F0.5
tp818
sF0.57699999999999996
(F0.048000000000000001
F0.32900000000000001
F0.048000000000000001
F0.32900000000000001
tp819
sF0.32600000000000001
(F0.128
F0.246
F0.128
F0.246
tp820
sF0.47199999999999998
(F0.097000000000000003
F0.26100000000000001
F0.097000000000000003
F0.26100000000000001
tp821
sF0.95299999999999996
(F0.027
F0.46800000000000003
F0.027
F0.46800000000000003
tp822
sF0.94099999999999995
(F0.027
F0.46800000000000003
F0.027
F0.46800000000000003
tp823
sF0.57599999999999996
(F0.048000000000000001
F0.32800000000000001
F0.048000000000000001
F0.32800000000000001
tp824
sF0.44800000000000001
(F0.10199999999999999
F0.25900000000000001
F0.10199999999999999
F0.25900000000000001
tp825
sF0.55100000000000005
(F0.057000000000000002
F0.307
F0.057000000000000002
F0.307
tp826
sF0.60999999999999999
(F0.041000000000000002
F0.35399999999999998
F0.041000000000000002
F0.35399999999999998
tp827
sF0.89000000000000001
(F0.027
F0.46800000000000003
F0.027
F0.46800000000000003
tp828
sF0.52800000000000002
(F0.067000000000000004
F0.28699999999999998
F0.067000000000000004
F0.28699999999999998
tp829
sF0.021000000000000001
(F0.46500000000000002
F0.373
F0.46500000000000002
F0.373
tp830
sF0.126
(F0.253
F0.24399999999999999
F0.253
F0.24399999999999999
tp831
sF0.13100000000000001
(F0.248
F0.24399999999999999
F0.248
F0.24399999999999999
tp832
sF0.219
(F0.17499999999999999
F0.24199999999999999
F0.17499999999999999
F0.24199999999999999
tp833
sF0.27200000000000002
(F0.14699999999999999
F0.24399999999999999
F0.14699999999999999
F0.24399999999999999
tp834
sF0.68999999999999995
(F0.033000000000000002
F0.40300000000000002
F0.033000000000000002
F0.40300000000000002
tp835
sF0.090999999999999998
(F0.30399999999999999
F0.251
F0.30399999999999999
F0.251
tp836
sF0.87
(F0.027
F0.46800000000000003
F0.027
F0.46800000000000003
tp837
sF0.14499999999999999
(F0.23000000000000001
F0.24199999999999999
F0.23000000000000001
F0.24199999999999999
tp838
sF0.443
(F0.10299999999999999
F0.25900000000000001
F0.10299999999999999
F0.25900000000000001
tp839
sF0.40999999999999998
(F0.108
F0.255
F0.108
F0.255
tp840
sF0.214
(F0.17899999999999999
F0.24099999999999999
F0.17899999999999999
F0.24099999999999999
tp841
sF0.75700000000000001
(F0.031
F0.437
F0.031
F0.437
tp842
sF0.437
(F0.10299999999999999
F0.25700000000000001
F0.10299999999999999
F0.25700000000000001
tp843
sF0.66200000000000003
(F0.035999999999999997
F0.38700000000000001
F0.035999999999999997
F0.38700000000000001
tp844
sF0.024
(F0.46500000000000002
F0.373
F0.46500000000000002
F0.373
tp845
sF0.23100000000000001
(F0.16600000000000001
F0.24299999999999999
F0.16600000000000001
F0.24299999999999999
tp846
sF0.56299999999999994
(F0.051999999999999998
F0.32200000000000001
F0.051999999999999998
F0.32200000000000001
tp847
sF0.82999999999999996
(F0.027
F0.46300000000000002
F0.027
F0.46300000000000002
tp848
sF0.49399999999999999
(F0.092999999999999999
F0.26200000000000001
F0.092999999999999999
F0.26200000000000001
tp849
sF0.35399999999999998
(F0.121
F0.25
F0.121
F0.25
tp850
sF0.85399999999999998
(F0.027
F0.46800000000000003
F0.027
F0.46800000000000003
tp851
sF0.79600000000000004
(F0.027
F0.45000000000000001
F0.027
F0.45000000000000001
tp852
sF0.497
(F0.091999999999999998
F0.26200000000000001
F0.091999999999999998
F0.26200000000000001
tp853
sF0.59599999999999997
(F0.044999999999999998
F0.34300000000000003
F0.044999999999999998
F0.34300000000000003
tp854
sF0.49299999999999999
(F0.092999999999999999
F0.26200000000000001
F0.092999999999999999
F0.26200000000000001
tp855
sF0.83699999999999997
(F0.029000000000000001
F0.46500000000000002
F0.029000000000000001
F0.46500000000000002
tp856
sF0.503
(F0.086999999999999994
F0.26400000000000001
F0.086999999999999994
F0.26400000000000001
tp857
sF0.26300000000000001
(F0.153
F0.24399999999999999
F0.153
F0.24399999999999999
tp858
sF0.73199999999999998
(F0.031
F0.42399999999999999
F0.031
F0.42399999999999999
tp859
sF0.68200000000000005
(F0.034000000000000002
F0.39900000000000002
F0.034000000000000002
F0.39900000000000002
tp860
sF0.98399999999999999
(F0.027
F0.46800000000000003
F0.027
F0.46800000000000003
tp861
sF0.502
(F0.088999999999999996
F0.26400000000000001
F0.088999999999999996
F0.26400000000000001
tp862
sF0.39000000000000001
(F0.112
F0.253
F0.112
F0.253
tp863
sF0.48199999999999998
(F0.095000000000000001
F0.26100000000000001
F0.095000000000000001
F0.26100000000000001
tp864
sF0.94499999999999995
(F0.027
F0.46800000000000003
F0.027
F0.46800000000000003
tp865
sF0.47699999999999998
(F0.096000000000000002
F0.26100000000000001
F0.096000000000000002
F0.26100000000000001
tp866
sF0.22900000000000001
(F0.17000000000000001
F0.24299999999999999
F0.17000000000000001
F0.24299999999999999
tp867
sF0.52300000000000002
(F0.069000000000000006
F0.28100000000000003
F0.069000000000000006
F0.28100000000000003
tp868
sF0.051999999999999998
(F0.38300000000000001
F0.27400000000000002
F0.38300000000000001
F0.27400000000000002
tp869
sF0.0060000000000000001
(F0.499
F0.496
F0.499
F0.496
tp870
sF0.93000000000000005
(F0.027
F0.46800000000000003
F0.027
F0.46800000000000003
tp871
sF0.31
(F0.13400000000000001
F0.246
F0.13400000000000001
F0.246
tp872
sF0.24299999999999999
(F0.161
F0.24199999999999999
F0.161
F0.24199999999999999
tp873
sF0.64700000000000002
(F0.036999999999999998
F0.378
F0.036999999999999998
F0.378
tp874
sF0.73099999999999998
(F0.031
F0.42399999999999999
F0.031
F0.42399999999999999
tp875
sF0.10299999999999999
(F0.28799999999999998
F0.25
F0.28799999999999998
F0.25
tp876
sF0.55600000000000005
(F0.055
F0.312
F0.055
F0.312
tp877
sF0.61499999999999999
(F0.040000000000000001
F0.35799999999999998
F0.040000000000000001
F0.35799999999999998
tp878
sF0.91000000000000003
(F0.027
F0.46800000000000003
F0.027
F0.46800000000000003
tp879
sF0.83199999999999996
(F0.028000000000000001
F0.46300000000000002
F0.028000000000000001
F0.46300000000000002
tp880
sF0.81200000000000006
(F0.027
F0.45700000000000002
F0.027
F0.45700000000000002
tp881
sF0.55800000000000005
(F0.053999999999999999
F0.314
F0.053999999999999999
F0.314
tp882
sF0.96099999999999997
(F0.027
F0.46800000000000003
F0.027
F0.46800000000000003
tp883
sF0.36499999999999999
(F0.11700000000000001
F0.25
F0.11700000000000001
F0.25
tp884
sF0.012999999999999999
(F0.49399999999999999
F0.46899999999999997
F0.49399999999999999
F0.46899999999999997
tp885
sF0.871
(F0.027
F0.46800000000000003
F0.027
F0.46800000000000003
tp886
sF0.46200000000000002
(F0.098000000000000004
F0.26000000000000001
F0.098000000000000004
F0.26000000000000001
tp887
sF0.075999999999999998
(F0.33100000000000002
F0.25700000000000001
F0.33100000000000002
F0.25700000000000001
tp888
sF0.59499999999999997
(F0.044999999999999998
F0.34300000000000003
F0.044999999999999998
F0.34300000000000003
tp889
sF0.54700000000000004
(F0.058999999999999997
F0.30399999999999999
F0.058999999999999997
F0.30399999999999999
tp890
sF0.27400000000000002
(F0.14699999999999999
F0.24399999999999999
F0.14699999999999999
F0.24399999999999999
tp891
sF0.47599999999999998
(F0.096000000000000002
F0.26100000000000001
F0.096000000000000002
F0.26100000000000001
tp892
sF0.38300000000000001
(F0.114
F0.252
F0.114
F0.252
tp893
sF0.47499999999999998
(F0.096000000000000002
F0.26100000000000001
F0.096000000000000002
F0.26100000000000001
tp894
sF0.20799999999999999
(F0.182
F0.24199999999999999
F0.182
F0.24199999999999999
tp895
sF0.58399999999999996
(F0.045999999999999999
F0.33400000000000002
F0.045999999999999999
F0.33400000000000002
tp896
sF0.45200000000000001
(F0.10100000000000001
F0.26000000000000001
F0.10100000000000001
F0.26000000000000001
tp897
sF0.83299999999999996
(F0.028000000000000001
F0.46400000000000002
F0.028000000000000001
F0.46400000000000002
tp898
sF0.66100000000000003
(F0.035999999999999997
F0.38600000000000001
F0.035999999999999997
F0.38600000000000001
tp899
sF0.23999999999999999
(F0.161
F0.24199999999999999
F0.161
F0.24199999999999999
tp900
sF0.22500000000000001
(F0.17000000000000001
F0.24299999999999999
F0.17000000000000001
F0.24299999999999999
tp901
sF0.40799999999999997
(F0.108
F0.254
F0.108
F0.254
tp902
sF0.79700000000000004
(F0.027
F0.45100000000000001
F0.027
F0.45100000000000001
tp903
sF0.25900000000000001
(F0.155
F0.24299999999999999
F0.155
F0.24299999999999999
tp904
sF0.69799999999999995
(F0.033000000000000002
F0.40699999999999997
F0.033000000000000002
F0.40699999999999997
tp905
sF0.54200000000000004
(F0.059999999999999998
F0.29999999999999999
F0.059999999999999998
F0.29999999999999999
tp906
sF0.060999999999999999
(F0.35999999999999999
F0.26300000000000001
F0.35999999999999999
F0.26300000000000001
tp907
sF0.27900000000000003
(F0.14499999999999999
F0.24399999999999999
F0.14499999999999999
F0.24399999999999999
tp908
sF0.76000000000000001
(F0.031
F0.438
F0.031
F0.438
tp909
sF0.75800000000000001
(F0.032000000000000001
F0.437
F0.032000000000000001
F0.437
tp910
sF0.16500000000000001
(F0.21199999999999999
F0.24099999999999999
F0.21199999999999999
F0.24099999999999999
tp911
sF0.77700000000000002
(F0.029000000000000001
F0.443
F0.029000000000000001
F0.443
tp912
sF0.016
(F0.48199999999999998
F0.42299999999999999
F0.48199999999999998
F0.42299999999999999
tp913
sF0.108
(F0.28100000000000003
F0.249
F0.28100000000000003
F0.249
tp914
sF0.56799999999999995
(F0.050000000000000003
F0.32500000000000001
F0.050000000000000003
F0.32500000000000001
tp915
sF0.45500000000000002
(F0.099000000000000005
F0.25900000000000001
F0.099000000000000005
F0.25900000000000001
tp916
sF0.17899999999999999
(F0.20499999999999999
F0.24299999999999999
F0.20499999999999999
F0.24299999999999999
tp917
sF0.64300000000000002
(F0.037999999999999999
F0.376
F0.037999999999999999
F0.376
tp918
sF0.14199999999999999
(F0.23499999999999999
F0.24299999999999999
F0.23499999999999999
F0.24299999999999999
tp919
sF0.216
(F0.17499999999999999
F0.24199999999999999
F0.17499999999999999
F0.24199999999999999
tp920
sF0.88
(F0.027
F0.46800000000000003
F0.027
F0.46800000000000003
tp921
sF0.094
(F0.30399999999999999
F0.251
F0.30399999999999999
F0.251
tp922
sF0.151
(F0.22600000000000001
F0.24199999999999999
F0.22600000000000001
F0.24199999999999999
tp923
sF0.77900000000000003
(F0.028000000000000001
F0.44400000000000001
F0.028000000000000001
F0.44400000000000001
tp924
sF0.02
(F0.46500000000000002
F0.373
F0.46500000000000002
F0.373
tp925
sF0.44500000000000001
(F0.10199999999999999
F0.25900000000000001
F0.10199999999999999
F0.25900000000000001
tp926
sF0.93400000000000005
(F0.027
F0.46800000000000003
F0.027
F0.46800000000000003
tp927
sF0.89200000000000002
(F0.027
F0.46800000000000003
F0.027
F0.46800000000000003
tp928
sF0.94599999999999995
(F0.027
F0.46800000000000003
F0.027
F0.46800000000000003
tp929
sF0.91100000000000003
(F0.027
F0.46800000000000003
F0.027
F0.46800000000000003
tp930
sF0.56100000000000005
(F0.052999999999999999
F0.317
F0.052999999999999999
F0.317
tp931
sF0.16800000000000001
(F0.21199999999999999
F0.24099999999999999
F0.21199999999999999
F0.24099999999999999
tp932
sF0.86099999999999999
(F0.027
F0.46800000000000003
F0.027
F0.46800000000000003
tp933
sF0.68300000000000005
(F0.034000000000000002
F0.40000000000000002
F0.034000000000000002
F0.40000000000000002
tp934
sF0.35299999999999998
(F0.121
F0.25
F0.121
F0.25
tp935
sF0.40600000000000003
(F0.108
F0.254
F0.108
F0.254
tp936
sF0.13200000000000001
(F0.248
F0.24399999999999999
F0.248
F0.24399999999999999
tp937
sF0.58699999999999997
(F0.044999999999999998
F0.33500000000000002
F0.044999999999999998
F0.33500000000000002
tp938
sF0.40200000000000002
(F0.11
F0.254
F0.11
F0.254
tp939
sF0.84099999999999997
(F0.031
F0.46800000000000003
F0.031
F0.46800000000000003
tp940
sF0.26200000000000001
(F0.153
F0.24399999999999999
F0.153
F0.24399999999999999
tp941
sF0.13600000000000001
(F0.24099999999999999
F0.24299999999999999
F0.24099999999999999
F0.24299999999999999
tp942
sF0.63300000000000001
(F0.036999999999999998
F0.36799999999999999
F0.036999999999999998
F0.36799999999999999
tp943
sF0.98899999999999999
(F0.027
F0.46800000000000003
F0.027
F0.46800000000000003
tp944
sF0.32300000000000001
(F0.13
F0.246
F0.13
F0.246
tp945
sF0.41499999999999998
(F0.107
F0.25600000000000001
F0.107
F0.25600000000000001
tp946
sF0.097000000000000003
(F0.29599999999999999
F0.25
F0.29599999999999999
F0.25
tp947
sF0.61399999999999999
(F0.040000000000000001
F0.35699999999999998
F0.040000000000000001
F0.35699999999999998
tp948
sF0.27600000000000002
(F0.14499999999999999
F0.24399999999999999
F0.14499999999999999
F0.24399999999999999
tp949
sF0.001
(F0.5
F0.5
F0.5
F0.5
tp950
sF0.98499999999999999
(F0.027
F0.46800000000000003
F0.027
F0.46800000000000003
tp951
sF0.113
(F0.27400000000000002
F0.249
F0.27400000000000002
F0.249
tp952
sF0.313
(F0.13400000000000001
F0.246
F0.13400000000000001
F0.246
tp953
sF0.253
(F0.157
F0.24299999999999999
F0.157
F0.24299999999999999
tp954
sF0.152
(F0.22600000000000001
F0.24199999999999999
F0.22600000000000001
F0.24199999999999999
tp955
sF0.60299999999999998
(F0.042999999999999997
F0.34899999999999998
F0.042999999999999997
F0.34899999999999998
tp956
sF0.95599999999999996
(F0.027
F0.46800000000000003
F0.027
F0.46800000000000003
tp957
sF0.12
(F0.25900000000000001
F0.24399999999999999
F0.25900000000000001
F0.24399999999999999
tp958
sF0.97499999999999998
(F0.027
F0.46800000000000003
F0.027
F0.46800000000000003
tp959
sF0.85999999999999999
(F0.027
F0.46800000000000003
F0.027
F0.46800000000000003
tp960
sF0.38800000000000001
(F0.114
F0.253
F0.114
F0.253
tp961
sF0.042000000000000003
(F0.40699999999999997
F0.29099999999999998
F0.40699999999999997
F0.29099999999999998
tp962
sF0.60599999999999998
(F0.041000000000000002
F0.35199999999999998
F0.041000000000000002
F0.35199999999999998
tp963
sF0.68000000000000005
(F0.033000000000000002
F0.39800000000000002
F0.033000000000000002
F0.39800000000000002
tp964
sF0.77800000000000002
(F0.028000000000000001
F0.443
F0.028000000000000001
F0.443
tp965
sF0.78700000000000003
(F0.028000000000000001
F0.44700000000000001
F0.028000000000000001
F0.44700000000000001
tp966
sF0.182
(F0.20000000000000001
F0.24199999999999999
F0.20000000000000001
F0.24199999999999999
tp967
sF0.72799999999999998
(F0.029999999999999999
F0.42199999999999999
F0.029999999999999999
F0.42199999999999999
tp968
sF0.91400000000000003
(F0.027
F0.46800000000000003
F0.027
F0.46800000000000003
tp969
sF0.85499999999999998
(F0.027
F0.46800000000000003
F0.027
F0.46800000000000003
tp970
sF0.95499999999999996
(F0.027
F0.46800000000000003
F0.027
F0.46800000000000003
tp971
sF0.45600000000000002
(F0.099000000000000005
F0.25900000000000001
F0.099000000000000005
F0.25900000000000001
tp972
sF0.59199999999999997
(F0.044999999999999998
F0.34100000000000003
F0.044999999999999998
F0.34100000000000003
tp973
sF0.51400000000000001
(F0.075999999999999998
F0.27200000000000002
F0.075999999999999998
F0.27200000000000002
tp974
sF0.57299999999999995
(F0.049000000000000002
F0.32600000000000001
F0.049000000000000002
F0.32600000000000001
tp975
sF0.39500000000000002
(F0.111
F0.254
F0.111
F0.254
tp976
sF0.92100000000000004
(F0.027
F0.46800000000000003
F0.027
F0.46800000000000003
tp977
sF0.045999999999999999
(F0.39400000000000002
F0.28100000000000003
F0.39400000000000002
F0.28100000000000003
tp978
sF0.19900000000000001
(F0.188
F0.23999999999999999
F0.188
F0.23999999999999999
tp979
sF0.41199999999999998
(F0.108
F0.255
F0.108
F0.255
tp980
sF0.70899999999999996
(F0.033000000000000002
F0.41399999999999998
F0.033000000000000002
F0.41399999999999998
tp981
sF0.28999999999999998
(F0.14000000000000001
F0.24399999999999999
F0.14000000000000001
F0.24399999999999999
tp982
sF0.58099999999999996
(F0.047
F0.33200000000000002
F0.047
F0.33200000000000002
tp983
sF0.441
(F0.10299999999999999
F0.25900000000000001
F0.10299999999999999
F0.25900000000000001
tp984
sF0.28299999999999997
(F0.14399999999999999
F0.24399999999999999
F0.14399999999999999
F0.24399999999999999
tp985
sF0.90100000000000002
(F0.027
F0.46800000000000003
F0.027
F0.46800000000000003
tp986
sF0.67900000000000005
(F0.034000000000000002
F0.39800000000000002
F0.034000000000000002
F0.39800000000000002
tp987
sF0.82899999999999996
(F0.027
F0.46200000000000002
F0.027
F0.46200000000000002
tp988
sF0.65800000000000003
(F0.035999999999999997
F0.38500000000000001
F0.035999999999999997
F0.38500000000000001
tp989
sF0.32400000000000001
(F0.13
F0.246
F0.13
F0.246
tp990
sF0.34399999999999997
(F0.124
F0.249
F0.124
F0.249
tp991
sF0.48699999999999999
(F0.094
F0.26100000000000001
F0.094
F0.26100000000000001
tp992
sF0.71999999999999997
(F0.031
F0.41899999999999998
F0.031
F0.41899999999999998
tp993
sF0.42899999999999999
(F0.106
F0.25700000000000001
F0.106
F0.25700000000000001
tp994
sF0.32000000000000001
(F0.13
F0.246
F0.13
F0.246
tp995
sF0.69499999999999995
(F0.034000000000000002
F0.40600000000000003
F0.034000000000000002
F0.40600000000000003
tp996
sF0.77400000000000002
(F0.029000000000000001
F0.442
F0.029000000000000001
F0.442
tp997
sF0.63400000000000001
(F0.036999999999999998
F0.36899999999999999
F0.036999999999999998
F0.36899999999999999
tp998
sF0.53300000000000003
(F0.063
F0.29099999999999998
F0.063
F0.29099999999999998
tp999
sF0.27300000000000002
(F0.14699999999999999
F0.24399999999999999
F0.14699999999999999
F0.24399999999999999
tp1000
sF0.88100000000000001
(F0.027
F0.46800000000000003
F0.027
F0.46800000000000003
tp1001
sF0.16200000000000001
(F0.216
F0.24099999999999999
F0.216
F0.24099999999999999
tp1002
s.