(dp1
S'chr33'
p2
(lp3
(lp4
S'10943390'
p5
aS'10805566'
p6
aa(lp7
S'11170173'
p8
aS'11162905'
p9
aa(lp10
S'14238716'
p11
aS'14027577'
p12
aa(lp13
S'16405776'
p14
aS'16362448'
p15
aa(lp16
S'21548491'
p17
aS'21548491'
p18
aa(lp19
S'26241699'
p20
aS'26221002'
p21
aa(lp22
S'26353171'
p23
aS'26350951'
p24
aa(lp25
S'26689457'
p26
aS'26689457'
p27
aa(lp28
S'28154429'
p29
aS'28089093'
p30
aa(lp31
S'28359808'
p32
aS'28297986'
p33
aa(lp34
S'28474253'
p35
aS'28447782'
p36
aa(lp37
S'29531282'
p38
aS'29387424'
p39
aa(lp40
S'32270631'
p41
aS'32248853'
p42
aa(lp43
S'32711208'
p44
aS'32711208'
p45
aa(lp46
S'33596250'
p47
aS'33566891'
p48
aasS'chrUn'
p49
(lp50
(lp51
S'11942789'
p52
aS'11937907'
p53
aa(lp54
S'26026806'
p55
aS'26026806'
p56
aa(lp57
S'26173669'
p58
aS'26171327'
p59
aa(lp60
S'33977020'
p61
aS'33977020'
p62
aa(lp63
S'33977020'
p64
aS'33977020'
p65
aa(lp66
S'33994081'
p67
aS'33994081'
p68
aa(lp69
S'33994081'
p70
aS'33994081'
p71
aa(lp72
S'33994081'
p73
aS'33994081'
p74
aa(lp75
S'35545464'
p76
aS'35544513'
p77
aa(lp78
S'40092116'
p79
aS'40092116'
p80
aa(lp81
S'41021592'
p82
aS'41021592'
p83
aa(lp84
S'41021592'
p85
aS'41021592'
p86
aa(lp87
S'41024768'
p88
aS'41024768'
p89
aa(lp90
S'42906114'
p91
aS'42906114'
p92
aa(lp93
S'42906114'
p94
aS'42906114'
p95
aa(lp96
S'44668453'
p97
aS'44667406'
p98
aa(lp99
S'44675452'
p100
aS'44674438'
p101
aa(lp102
S'47163969'
p103
aS'47163969'
p104
aa(lp105
S'47163969'
p106
aS'47163969'
p107
aa(lp108
S'47163969'
p109
aS'47163969'
p110
aa(lp111
S'47172312'
p112
aS'47172312'
p113
aa(lp114
S'47183965'
p115
aS'47183965'
p116
aa(lp117
S'47183965'
p118
aS'47183965'
p119
aa(lp120
S'47793361'
p121
aS'47793361'
p122
aa(lp123
S'50444328'
p124
aS'50440233'
p125
aa(lp126
S'51364140'
p127
aS'51360266'
p128
aa(lp129
S'52810017'
p130
aS'52802564'
p131
aa(lp132
S'53448396'
p133
aS'53448396'
p134
aa(lp135
S'55072163'
p136
aS'55069823'
p137
aa(lp138
S'56312995'
p139
aS'56312995'
p140
aa(lp141
S'57643253'
p142
aS'57641581'
p143
aa(lp144
S'59365400'
p145
aS'59365400'
p146
aa(lp147
S'60418993'
p148
aS'60418993'
p149
aa(lp150
S'60418993'
p151
aS'60418993'
p152
aa(lp153
S'61302895'
p154
aS'61302895'
p155
aa(lp156
S'61302895'
p157
aS'61302895'
p158
aa(lp159
S'61302895'
p160
aS'61302895'
p161
aa(lp162
S'63330700'
p163
aS'63323222'
p164
aa(lp165
S'64196221'
p166
aS'64196221'
p167
aa(lp168
S'65067452'
p169
aS'65066513'
p170
aa(lp171
S'71791760'
p172
aS'71791760'
p173
aa(lp174
S'71791760'
p175
aS'71791760'
p176
aa(lp177
S'73267834'
p178
aS'73267834'
p179
aa(lp180
S'73516284'
p181
aS'73516284'
p182
aa(lp183
S'75822264'
p184
aS'75822264'
p185
aa(lp186
S'81856914'
p187
aS'81854141'
p188
aa(lp189
S'82852718'
p190
aS'82852718'
p191
aa(lp192
S'85562873'
p193
aS'85561902'
p194
aasS'chr32'
p195
(lp196
(lp197
S'3564233'
p198
aS'3562713'
p199
aa(lp200
S'7492885'
p201
aS'7473053'
p202
aa(lp203
S'14183237'
p204
aS'14172962'
p205
aa(lp206
S'14450399'
p207
aS'14404120'
p208
aa(lp209
S'14772619'
p210
aS'14769708'
p211
aa(lp212
S'14772619'
p213
aS'14770017'
p214
aa(lp215
S'20161712'
p216
aS'20137419'
p217
aa(lp218
S'20941392'
p219
aS'20900782'
p220
aa(lp221
S'24184271'
p222
aS'24172880'
p223
aa(lp224
S'24815298'
p225
aS'24813399'
p226
aa(lp227
S'25919527'
p228
aS'25613518'
p229
aa(lp230
S'26963466'
p231
aS'26871367'
p232
aa(lp233
S'27365139'
p234
aS'27344207'
p235
aa(lp236
S'27811189'
p237
aS'27735080'
p238
aa(lp239
S'31949647'
p240
aS'31938965'
p241
aa(lp242
S'33086767'
p243
aS'32994550'
p244
aa(lp245
S'35353460'
p246
aS'35353460'
p247
aa(lp248
S'35353589'
p249
aS'35353589'
p250
aa(lp251
S'35353765'
p252
aS'35353765'
p253
aa(lp254
S'35353921'
p255
aS'35353921'
p256
aa(lp257
S'35354062'
p258
aS'35354062'
p259
aa(lp260
S'36639742'
p261
aS'36559991'
p262
aa(lp263
S'41327197'
p264
aS'41198828'
p265
aasS'chrX'
p266
(lp267
(lp268
S'389084'
p269
aS'379874'
p270
aa(lp271
S'1508570'
p272
aS'1491087'
p273
aa(lp274
S'1540386'
p275
aS'1521593'
p276
aa(lp277
S'2876712'
p278
aS'2870796'
p279
aa(lp280
S'9314879'
p281
aS'9289559'
p282
aa(lp283
S'10082009'
p284
aS'10080939'
p285
aa(lp286
S'11794845'
p287
aS'11756043'
p288
aa(lp289
S'11964543'
p290
aS'11963938'
p291
aa(lp292
S'20508795'
p293
aS'20498167'
p294
aa(lp295
S'21694374'
p296
aS'21693430'
p297
aa(lp298
S'22945231'
p299
aS'22944081'
p300
aa(lp301
S'28288323'
p302
aS'26245991'
p303
aa(lp304
S'29659702'
p305
aS'29632370'
p306
aa(lp307
S'32518218'
p308
aS'32483433'
p309
aa(lp310
S'32561282'
p311
aS'32555677'
p312
aa(lp313
S'33055108'
p314
aS'33006702'
p315
aa(lp316
S'37692688'
p317
aS'37627025'
p318
aa(lp319
S'37831886'
p320
aS'37714579'
p321
aa(lp322
S'38907457'
p323
aS'38693898'
p324
aa(lp325
S'38907457'
p326
aS'38693898'
p327
aa(lp328
S'39471514'
p329
aS'39471514'
p330
aa(lp331
S'39472171'
p332
aS'39472171'
p333
aa(lp334
S'40790213'
p335
aS'40781713'
p336
aa(lp337
S'41152786'
p338
aS'41150038'
p339
aa(lp340
S'41929036'
p341
aS'41917364'
p342
aa(lp343
S'42020803'
p344
aS'42012029'
p345
aa(lp346
S'42304349'
p347
aS'42297704'
p348
aa(lp349
S'42728211'
p350
aS'42728211'
p351
aa(lp352
S'42728616'
p353
aS'42728616'
p354
aa(lp355
S'42733403'
p356
aS'42733403'
p357
aa(lp358
S'42733908'
p359
aS'42733908'
p360
aa(lp361
S'42737496'
p362
aS'42737496'
p363
aa(lp364
S'42739132'
p365
aS'42739132'
p366
aa(lp367
S'42965575'
p368
aS'42920477'
p369
aa(lp370
S'43710638'
p371
aS'43710638'
p372
aa(lp373
S'44945394'
p374
aS'44915686'
p375
aa(lp376
S'45224092'
p377
aS'45224092'
p378
aa(lp379
S'47521349'
p380
aS'47521349'
p381
aa(lp382
S'48105051'
p383
aS'48105051'
p384
aa(lp385
S'48105051'
p386
aS'48105051'
p387
aa(lp388
S'52239055'
p389
aS'52239055'
p390
aa(lp391
S'53762417'
p392
aS'53762417'
p393
aa(lp394
S'55079812'
p395
aS'54897733'
p396
aa(lp397
S'57423709'
p398
aS'57423709'
p399
aa(lp400
S'57443800'
p401
aS'57008109'
p402
aa(lp403
S'58410934'
p404
aS'58407418'
p405
aa(lp406
S'58810638'
p407
aS'58808488'
p408
aa(lp409
S'59221589'
p410
aS'59216300'
p411
aa(lp412
S'60604496'
p413
aS'60604496'
p414
aa(lp415
S'60604654'
p416
aS'60604654'
p417
aa(lp418
S'60644692'
p419
aS'60644692'
p420
aa(lp421
S'60644831'
p422
aS'60644831'
p423
aa(lp424
S'62450022'
p425
aS'62450022'
p426
aa(lp427
S'62503565'
p428
aS'62503565'
p429
aa(lp430
S'69751334'
p431
aS'69751334'
p432
aa(lp433
S'74631845'
p434
aS'74631845'
p435
aa(lp436
S'78336262'
p437
aS'78334298'
p438
aa(lp439
S'78494378'
p440
aS'78492608'
p441
aa(lp442
S'79458370'
p443
aS'79458370'
p444
aa(lp445
S'79651205'
p446
aS'79650625'
p447
aa(lp448
S'80272779'
p449
aS'80258069'
p450
aa(lp451
S'83551878'
p452
aS'83550983'
p453
aa(lp454
S'85316869'
p455
aS'85051849'
p456
aa(lp457
S'86341041'
p458
aS'86341041'
p459
aa(lp460
S'90454819'
p461
aS'90454819'
p462
aa(lp463
S'90623106'
p464
aS'90623106'
p465
aa(lp466
S'90703513'
p467
aS'90541823'
p468
aa(lp469
S'90841873'
p470
aS'90812399'
p471
aa(lp472
S'94404968'
p473
aS'94396368'
p474
aa(lp475
S'94934911'
p476
aS'94934017'
p477
aa(lp478
S'95513587'
p479
aS'95512821'
p480
aa(lp481
S'96978074'
p482
aS'96978074'
p483
aa(lp484
S'98420081'
p485
aS'98400333'
p486
aa(lp487
S'99628712'
p488
aS'99628712'
p489
aa(lp490
S'104558841'
p491
aS'104527298'
p492
aa(lp493
S'107957428'
p494
aS'107957428'
p495
aa(lp496
S'107957591'
p497
aS'107957591'
p498
aa(lp499
S'107957730'
p500
aS'107957730'
p501
aa(lp502
S'107957863'
p503
aS'107957863'
p504
aa(lp505
S'107958120'
p506
aS'107958120'
p507
aa(lp508
S'107958279'
p509
aS'107958279'
p510
aa(lp511
S'108215450'
p512
aS'108177628'
p513
aa(lp514
S'108215450'
p515
aS'108192995'
p516
aa(lp517
S'108239092'
p518
aS'108239092'
p519
aa(lp520
S'108239277'
p521
aS'108239277'
p522
aa(lp523
S'108240165'
p524
aS'108240165'
p525
aa(lp526
S'108244949'
p527
aS'108244949'
p528
aa(lp529
S'108245241'
p530
aS'108245241'
p531
aa(lp532
S'108307499'
p533
aS'108262675'
p534
aa(lp535
S'108478083'
p536
aS'108458601'
p537
aa(lp538
S'109935347'
p539
aS'109917785'
p540
aa(lp541
S'110091767'
p542
aS'110079931'
p543
aa(lp544
S'111761285'
p545
aS'111761285'
p546
aa(lp547
S'112601743'
p548
aS'112569509'
p549
aa(lp550
S'112934550'
p551
aS'112934550'
p552
aa(lp553
S'117746095'
p554
aS'117746095'
p555
aa(lp556
S'117747132'
p557
aS'117747132'
p558
aa(lp559
S'117748784'
p560
aS'117748784'
p561
aa(lp562
S'117750250'
p563
aS'117750250'
p564
aa(lp565
S'117751199'
p566
aS'117751199'
p567
aa(lp568
S'117754391'
p569
aS'117754391'
p570
aa(lp571
S'117756448'
p572
aS'117756448'
p573
aa(lp574
S'117757321'
p575
aS'117757321'
p576
aa(lp577
S'117759166'
p578
aS'117759166'
p579
aa(lp580
S'117760104'
p581
aS'117760104'
p582
aa(lp583
S'117787389'
p584
aS'117787389'
p585
aa(lp586
S'118723901'
p587
aS'118723901'
p588
aa(lp589
S'118724209'
p590
aS'118724209'
p591
aa(lp592
S'118729855'
p593
aS'118729855'
p594
aa(lp595
S'118730065'
p596
aS'118730065'
p597
aa(lp598
S'118736475'
p599
aS'118736475'
p600
aa(lp601
S'118759083'
p602
aS'118759083'
p603
aa(lp604
S'120585912'
p605
aS'120565481'
p606
aa(lp607
S'121585075'
p608
aS'121585075'
p609
aa(lp610
S'122478087'
p611
aS'122472352'
p612
aa(lp613
S'122969720'
p614
aS'122969720'
p615
aa(lp616
S'122970770'
p617
aS'122970770'
p618
aa(lp619
S'123446948'
p620
aS'123446948'
p621
aa(lp622
S'123449101'
p623
aS'123449101'
p624
aa(lp625
S'124377951'
p626
aS'124373719'
p627
aa(lp628
S'124657230'
p629
aS'124652544'
p630
aa(lp631
S'124798000'
p632
aS'124796209'
p633
aa(lp634
S'124906439'
p635
aS'124906439'
p636
aa(lp637
S'125031166'
p638
aS'125018300'
p639
aa(lp640
S'125190855'
p641
aS'125185763'
p642
aa(lp643
S'125899618'
p644
aS'125872960'
p645
aa(lp646
S'126063525'
p647
aS'125917506'
p648
aa(lp649
S'126084918'
p650
aS'126066818'
p651
aa(lp652
S'126306552'
p653
aS'126284345'
p654
aasS'chr13'
p655
(lp656
(lp657
S'3015615'
p658
aS'3015615'
p659
aa(lp660
S'4538394'
p661
aS'4538394'
p662
aa(lp663
S'4538523'
p664
aS'4538523'
p665
aa(lp666
S'7414670'
p667
aS'7385347'
p668
aa(lp669
S'7792855'
p670
aS'7754738'
p671
aa(lp672
S'9820340'
p673
aS'9459932'
p674
aa(lp675
S'11335965'
p676
aS'11095624'
p677
aa(lp678
S'12789787'
p679
aS'12789787'
p680
aa(lp681
S'13137417'
p682
aS'13124875'
p683
aa(lp684
S'25047115'
p685
aS'24997639'
p686
aa(lp687
S'26384728'
p688
aS'26376932'
p689
aa(lp690
S'28242545'
p691
aS'28238391'
p692
aa(lp693
S'32634247'
p694
aS'32387064'
p695
aa(lp696
S'32769160'
p697
aS'32727333'
p698
aa(lp699
S'33940995'
p700
aS'33940995'
p701
aa(lp702
S'33945263'
p703
aS'33945263'
p704
aa(lp705
S'38395179'
p706
aS'38395179'
p707
aa(lp708
S'40360613'
p709
aS'40356032'
p710
aa(lp711
S'41234253'
p712
aS'41226027'
p713
aa(lp714
S'43301313'
p715
aS'43301313'
p716
aa(lp717
S'46798909'
p718
aS'46766211'
p719
aa(lp720
S'50122327'
p721
aS'50040838'
p722
aa(lp723
S'50416670'
p724
aS'50374956'
p725
aa(lp726
S'51649044'
p727
aS'51619548'
p728
aa(lp729
S'61204076'
p730
aS'61190587'
p731
aa(lp732
S'61947589'
p733
aS'61933923'
p734
aa(lp735
S'62184357'
p736
aS'62169596'
p737
aa(lp738
S'62383740'
p739
aS'62377352'
p740
aa(lp741
S'62537055'
p742
aS'62527847'
p743
aa(lp744
S'65107416'
p745
aS'65090945'
p746
aa(lp747
S'65141481'
p748
aS'65120943'
p749
aa(lp750
S'65376421'
p751
aS'65373107'
p752
aa(lp753
S'65466594'
p754
aS'65464711'
p755
aasS'chr12'
p756
(lp757
(lp758
S'3333543'
p759
aS'3331816'
p760
aa(lp761
S'3898863'
p762
aS'3895971'
p763
aa(lp764
S'3939842'
p765
aS'3936492'
p766
aa(lp767
S'3990139'
p768
aS'3986744'
p769
aa(lp770
S'4046166'
p771
aS'4035769'
p772
aa(lp773
S'4051289'
p774
aS'4050245'
p775
aa(lp776
S'4060409'
p777
aS'4052346'
p778
aa(lp779
S'4075583'
p780
aS'4074640'
p781
aa(lp782
S'4079597'
p783
aS'4077732'
p784
aa(lp785
S'4084325'
p786
aS'4082594'
p787
aa(lp788
S'4166762'
p789
aS'4163201'
p790
aa(lp791
S'4218539'
p792
aS'4213321'
p793
aa(lp794
S'4290315'
p795
aS'4288105'
p796
aa(lp797
S'4456470'
p798
aS'4453509'
p799
aa(lp800
S'4579821'
p801
aS'4577114'
p802
aa(lp803
S'5140595'
p804
aS'5137040'
p805
aa(lp806
S'5230986'
p807
aS'5224573'
p808
aa(lp809
S'5252520'
p810
aS'5155649'
p811
aa(lp812
S'5254119'
p813
aS'5248515'
p814
aa(lp815
S'5387118'
p816
aS'5381931'
p817
aa(lp818
S'5420799'
p819
aS'5411655'
p820
aa(lp821
S'5426218'
p822
aS'5423074'
p823
aa(lp824
S'5435551'
p825
aS'5427850'
p826
aa(lp827
S'5441455'
p828
aS'5435964'
p829
aa(lp830
S'5511766'
p831
aS'5506807'
p832
aa(lp833
S'5523922'
p834
aS'5520629'
p835
aa(lp836
S'5549415'
p837
aS'5541636'
p838
aa(lp839
S'5571714'
p840
aS'5568985'
p841
aa(lp842
S'5670913'
p843
aS'5667697'
p844
aa(lp845
S'5674376'
p846
aS'5674376'
p847
aa(lp848
S'5678874'
p849
aS'5675270'
p850
aa(lp851
S'5716217'
p852
aS'5701399'
p853
aa(lp854
S'5722043'
p855
aS'5716388'
p856
aa(lp857
S'5724383'
p858
aS'5722939'
p859
aa(lp860
S'5734244'
p861
aS'5733218'
p862
aa(lp863
S'5755194'
p864
aS'5744745'
p865
aa(lp866
S'5958144'
p867
aS'5954915'
p868
aa(lp869
S'6149459'
p870
aS'6140391'
p871
aa(lp872
S'6203646'
p873
aS'6203646'
p874
aa(lp875
S'6541048'
p876
aS'6535625'
p877
aa(lp878
S'6689235'
p879
aS'6570084'
p880
aa(lp881
S'6722358'
p882
aS'6716242'
p883
aa(lp884
S'7013107'
p885
aS'6998830'
p886
aa(lp887
S'7097866'
p888
aS'7084554'
p889
aa(lp890
S'7580734'
p891
aS'7567749'
p892
aa(lp893
S'7605453'
p894
aS'7603104'
p895
aa(lp896
S'7914208'
p897
aS'7912251'
p898
aa(lp899
S'8219757'
p900
aS'8146556'
p901
aa(lp902
S'8424069'
p903
aS'8378381'
p904
aa(lp905
S'9218449'
p906
aS'9214019'
p907
aa(lp908
S'13004595'
p909
aS'12995417'
p910
aa(lp911
S'14319954'
p912
aS'14304474'
p913
aa(lp914
S'15228600'
p915
aS'15212950'
p916
aa(lp917
S'15228600'
p918
aS'15212950'
p919
aa(lp920
S'15228600'
p921
aS'15212950'
p922
aa(lp923
S'15647930'
p924
aS'15641384'
p925
aa(lp926
S'15670896'
p927
aS'15669058'
p928
aa(lp929
S'17844343'
p930
aS'17821536'
p931
aa(lp932
S'17910618'
p933
aS'17869915'
p934
aa(lp935
S'20456837'
p936
aS'20436841'
p937
aa(lp938
S'20853252'
p939
aS'20852470'
p940
aa(lp941
S'21572328'
p942
aS'21546657'
p943
aa(lp944
S'22807622'
p945
aS'22807622'
p946
aa(lp947
S'22864429'
p948
aS'22856048'
p949
aa(lp950
S'23358311'
p951
aS'23350179'
p952
aa(lp953
S'23443580'
p954
aS'23427968'
p955
aa(lp956
S'23562883'
p957
aS'23515156'
p958
aa(lp959
S'25625347'
p960
aS'25519834'
p961
aa(lp962
S'26596082'
p963
aS'26594951'
p964
aa(lp965
S'29884478'
p966
aS'29853580'
p967
aa(lp968
S'36319990'
p969
aS'36142220'
p970
aa(lp971
S'36400108'
p972
aS'36321282'
p973
aa(lp974
S'36757552'
p975
aS'36757552'
p976
aa(lp977
S'36783548'
p978
aS'36783548'
p979
aa(lp980
S'38448971'
p981
aS'38447746'
p982
aa(lp983
S'38583653'
p984
aS'38580448'
p985
aa(lp986
S'39889711'
p987
aS'39889711'
p988
aa(lp989
S'41662720'
p990
aS'41662261'
p991
aa(lp992
S'43722401'
p993
aS'43722401'
p994
aa(lp995
S'43722404'
p996
aS'43722404'
p997
aa(lp998
S'47060022'
p999
aS'46924966'
p1000
aa(lp1001
S'49614035'
p1002
aS'49612063'
p1003
aa(lp1004
S'49992782'
p1005
aS'49969621'
p1006
aa(lp1007
S'51375806'
p1008
aS'51375806'
p1009
aa(lp1010
S'57775177'
p1011
aS'57774097'
p1012
aa(lp1013
S'61110686'
p1014
aS'61086273'
p1015
aa(lp1016
S'69669880'
p1017
aS'69546661'
p1018
aasS'chr11'
p1019
(lp1020
(lp1021
S'3513176'
p1022
aS'3511982'
p1023
aa(lp1024
S'3840015'
p1025
aS'3838074'
p1026
aa(lp1027
S'3863681'
p1028
aS'3860177'
p1029
aa(lp1030
S'4705448'
p1031
aS'4705448'
p1032
aa(lp1033
S'5001905'
p1034
aS'4971317'
p1035
aa(lp1036
S'5745960'
p1037
aS'5743341'
p1038
aa(lp1039
S'8317015'
p1040
aS'8316298'
p1041
aa(lp1042
S'8360744'
p1043
aS'8350529'
p1044
aa(lp1045
S'17021319'
p1046
aS'17021319'
p1047
aa(lp1048
S'17021670'
p1049
aS'17021670'
p1050
aa(lp1051
S'17021675'
p1052
aS'17021675'
p1053
aa(lp1054
S'17021916'
p1055
aS'17021916'
p1056
aa(lp1057
S'23337547'
p1058
aS'23335410'
p1059
aa(lp1060
S'23351839'
p1061
aS'23349550'
p1062
aa(lp1063
S'23832185'
p1064
aS'23830560'
p1065
aa(lp1066
S'23966310'
p1067
aS'23963477'
p1068
aa(lp1069
S'23986459'
p1070
aS'23977675'
p1071
aa(lp1072
S'24153513'
p1073
aS'24150644'
p1074
aa(lp1075
S'24368236'
p1076
aS'24320614'
p1077
aa(lp1078
S'25374291'
p1079
aS'25360498'
p1080
aa(lp1081
S'25417744'
p1082
aS'25396018'
p1083
aa(lp1084
S'28369373'
p1085
aS'28369373'
p1086
aa(lp1087
S'28743790'
p1088
aS'28742954'
p1089
aa(lp1090
S'28956602'
p1091
aS'28952706'
p1092
aa(lp1093
S'29127340'
p1094
aS'29097675'
p1095
aa(lp1096
S'29809232'
p1097
aS'29790701'
p1098
aa(lp1099
S'29931672'
p1100
aS'29919639'
p1101
aa(lp1102
S'30275249'
p1103
aS'30261809'
p1104
aa(lp1105
S'36362565'
p1106
aS'36344756'
p1107
aa(lp1108
S'42066628'
p1109
aS'42065985'
p1110
aa(lp1111
S'42193606'
p1112
aS'42189920'
p1113
aa(lp1114
S'43329187'
p1115
aS'43329187'
p1116
aa(lp1117
S'43696948'
p1118
aS'43696387'
p1119
aa(lp1120
S'43757484'
p1121
aS'43756920'
p1122
aa(lp1123
S'43757484'
p1124
aS'43756920'
p1125
aa(lp1126
S'43757484'
p1127
aS'43756920'
p1128
aa(lp1129
S'43893494'
p1130
aS'43892930'
p1131
aa(lp1132
S'43934473'
p1133
aS'43934473'
p1134
aa(lp1135
S'44294328'
p1136
aS'44291166'
p1137
aa(lp1138
S'47924129'
p1139
aS'47924129'
p1140
aa(lp1141
S'48239511'
p1142
aS'48239511'
p1143
aa(lp1144
S'48672922'
p1145
aS'48672292'
p1146
aa(lp1147
S'49850005'
p1148
aS'49850005'
p1149
aa(lp1150
S'52862134'
p1151
aS'52850633'
p1152
aa(lp1153
S'53152254'
p1154
aS'53141508'
p1155
aa(lp1156
S'53184964'
p1157
aS'53184964'
p1158
aa(lp1159
S'53195853'
p1160
aS'53185693'
p1161
aa(lp1162
S'54287344'
p1163
aS'54257965'
p1164
aa(lp1165
S'54364974'
p1166
aS'54364273'
p1167
aa(lp1168
S'54388590'
p1169
aS'54387088'
p1170
aa(lp1171
S'54405173'
p1172
aS'54404489'
p1173
aa(lp1174
S'55229644'
p1175
aS'55226367'
p1176
aa(lp1177
S'55240173'
p1178
aS'55234573'
p1179
aa(lp1180
S'55623693'
p1181
aS'55548225'
p1182
aa(lp1183
S'59316704'
p1184
aS'59310298'
p1185
aa(lp1186
S'60225202'
p1187
aS'60073104'
p1188
aa(lp1189
S'63594966'
p1190
aS'63594024'
p1191
aa(lp1192
S'63656316'
p1193
aS'63655353'
p1194
aa(lp1195
S'67224741'
p1196
aS'67224741'
p1197
aa(lp1198
S'68015083'
p1199
aS'67868087'
p1200
aa(lp1201
S'69291524'
p1202
aS'69265014'
p1203
aa(lp1204
S'69503177'
p1205
aS'69469744'
p1206
aa(lp1207
S'69974569'
p1208
aS'69913449'
p1209
aa(lp1210
S'70335586'
p1211
aS'70328059'
p1212
aa(lp1213
S'70335586'
p1214
aS'70335586'
p1215
aa(lp1216
S'70413246'
p1217
aS'70409023'
p1218
aa(lp1219
S'71492197'
p1220
aS'71492197'
p1221
aa(lp1222
S'72171280'
p1223
aS'72108127'
p1224
aa(lp1225
S'74396145'
p1226
aS'74385376'
p1227
aa(lp1228
S'77311639'
p1229
aS'77299576'
p1230
aasS'chr10'
p1231
(lp1232
(lp1233
S'3281380'
p1234
aS'3273986'
p1235
aa(lp1236
S'3689234'
p1237
aS'3685926'
p1238
aa(lp1239
S'3689234'
p1240
aS'3689234'
p1241
aa(lp1242
S'3932115'
p1243
aS'3921878'
p1244
aa(lp1245
S'3932115'
p1246
aS'3921878'
p1247
aa(lp1248
S'4149524'
p1249
aS'4145228'
p1250
aa(lp1251
S'4226135'
p1252
aS'4216672'
p1253
aa(lp1254
S'4863550'
p1255
aS'4863550'
p1256
aa(lp1257
S'9257238'
p1258
aS'9253792'
p1259
aa(lp1260
S'13396426'
p1261
aS'13392218'
p1262
aa(lp1263
S'13946511'
p1264
aS'13920605'
p1265
aa(lp1266
S'14334677'
p1267
aS'14330537'
p1268
aa(lp1269
S'16514219'
p1270
aS'16430948'
p1271
aa(lp1272
S'19682073'
p1273
aS'19679653'
p1274
aa(lp1275
S'20023245'
p1276
aS'20015683'
p1277
aa(lp1278
S'23060884'
p1279
aS'22995598'
p1280
aa(lp1281
S'23088260'
p1282
aS'23088260'
p1283
aa(lp1284
S'23089175'
p1285
aS'23089175'
p1286
aa(lp1287
S'23875656'
p1288
aS'23875656'
p1289
aa(lp1290
S'24192394'
p1291
aS'24144401'
p1292
aa(lp1293
S'24250417'
p1294
aS'24224301'
p1295
aa(lp1296
S'25912155'
p1297
aS'25893768'
p1298
aa(lp1299
S'26310234'
p1300
aS'26310234'
p1301
aa(lp1302
S'26323222'
p1303
aS'26319186'
p1304
aa(lp1305
S'26520515'
p1306
aS'26520515'
p1307
aa(lp1308
S'27477066'
p1309
aS'27445384'
p1310
aa(lp1311
S'27595253'
p1312
aS'27592878'
p1313
aa(lp1314
S'28812336'
p1315
aS'28805963'
p1316
aa(lp1317
S'28884090'
p1318
aS'28865786'
p1319
aa(lp1320
S'28980657'
p1321
aS'28978944'
p1322
aa(lp1323
S'29857229'
p1324
aS'29830140'
p1325
aa(lp1326
S'30007894'
p1327
aS'30004664'
p1328
aa(lp1329
S'30088062'
p1330
aS'30084887'
p1331
aa(lp1332
S'30255166'
p1333
aS'30255166'
p1334
aa(lp1335
S'30368519'
p1336
aS'30368519'
p1337
aa(lp1338
S'30402878'
p1339
aS'30401600'
p1340
aa(lp1341
S'30461201'
p1342
aS'30446675'
p1343
aa(lp1344
S'30461201'
p1345
aS'30446675'
p1346
aa(lp1347
S'30932847'
p1348
aS'30932847'
p1349
aa(lp1350
S'31194505'
p1351
aS'31135197'
p1352
aa(lp1353
S'31822597'
p1354
aS'31815456'
p1355
aa(lp1356
S'33807229'
p1357
aS'33753293'
p1358
aa(lp1359
S'37146231'
p1360
aS'37030622'
p1361
aa(lp1362
S'40254928'
p1363
aS'40254928'
p1364
aa(lp1365
S'43489970'
p1366
aS'43489970'
p1367
aa(lp1368
S'44594196'
p1369
aS'44593682'
p1370
aa(lp1371
S'44644451'
p1372
aS'44588396'
p1373
aa(lp1374
S'44965715'
p1375
aS'44956388'
p1376
aa(lp1377
S'47384151'
p1378
aS'47357441'
p1379
aa(lp1380
S'48113650'
p1381
aS'48107418'
p1382
aa(lp1383
S'49209580'
p1384
aS'48883285'
p1385
aa(lp1386
S'49862068'
p1387
aS'49826873'
p1388
aa(lp1389
S'53592352'
p1390
aS'53580076'
p1391
aa(lp1392
S'53658561'
p1393
aS'53613589'
p1394
aa(lp1395
S'57930679'
p1396
aS'57856667'
p1397
aa(lp1398
S'59283755'
p1399
aS'59281489'
p1400
aa(lp1401
S'59903066'
p1402
aS'59903066'
p1403
aa(lp1404
S'59909953'
p1405
aS'59909953'
p1406
aa(lp1407
S'59921333'
p1408
aS'59921333'
p1409
aa(lp1410
S'65210781'
p1411
aS'65037486'
p1412
aa(lp1413
S'67726067'
p1414
aS'67714817'
p1415
aa(lp1416
S'70574590'
p1417
aS'70549384'
p1418
aa(lp1419
S'71622468'
p1420
aS'71588384'
p1421
aa(lp1422
S'71992434'
p1423
aS'71982086'
p1424
aasS'chr17'
p1425
(lp1426
(lp1427
S'3787572'
p1428
aS'3751448'
p1429
aa(lp1430
S'5104434'
p1431
aS'5094598'
p1432
aa(lp1433
S'9612197'
p1434
aS'9564080'
p1435
aa(lp1436
S'9612197'
p1437
aS'9564080'
p1438
aa(lp1439
S'9612197'
p1440
aS'9564080'
p1441
aa(lp1442
S'10125962'
p1443
aS'10125962'
p1444
aa(lp1445
S'12222005'
p1446
aS'12199316'
p1447
aa(lp1448
S'16080117'
p1449
aS'16080117'
p1450
aa(lp1451
S'18420739'
p1452
aS'18420088'
p1453
aa(lp1454
S'22556953'
p1455
aS'22556953'
p1456
aa(lp1457
S'23245835'
p1458
aS'23162754'
p1459
aa(lp1460
S'23450588'
p1461
aS'23412187'
p1462
aa(lp1463
S'24072845'
p1464
aS'24060490'
p1465
aa(lp1466
S'24487259'
p1467
aS'24487259'
p1468
aa(lp1469
S'24487259'
p1470
aS'24487259'
p1471
aa(lp1472
S'24487259'
p1473
aS'24487259'
p1474
aa(lp1475
S'24563425'
p1476
aS'24414057'
p1477
aa(lp1478
S'24595221'
p1479
aS'24595221'
p1480
aa(lp1481
S'24595221'
p1482
aS'24595221'
p1483
aa(lp1484
S'24595221'
p1485
aS'24595221'
p1486
aa(lp1487
S'24724432'
p1488
aS'24724432'
p1489
aa(lp1490
S'24724432'
p1491
aS'24724432'
p1492
aa(lp1493
S'24724432'
p1494
aS'24724432'
p1495
aa(lp1496
S'24897012'
p1497
aS'24887760'
p1498
aa(lp1499
S'25803162'
p1500
aS'25783853'
p1501
aa(lp1502
S'26013735'
p1503
aS'26005105'
p1504
aa(lp1505
S'28158067'
p1506
aS'28119410'
p1507
aa(lp1508
S'32640699'
p1509
aS'32599034'
p1510
aa(lp1511
S'33381260'
p1512
aS'33375986'
p1513
aa(lp1514
S'34337836'
p1515
aS'34303806'
p1516
aa(lp1517
S'35411007'
p1518
aS'35111934'
p1519
aa(lp1520
S'38109195'
p1521
aS'38086714'
p1522
aa(lp1523
S'38245335'
p1524
aS'38185642'
p1525
aa(lp1526
S'38312577'
p1527
aS'38272648'
p1528
aa(lp1529
S'40091165'
p1530
aS'40082461'
p1531
aa(lp1532
S'40135455'
p1533
aS'40130936'
p1534
aa(lp1535
S'40361112'
p1536
aS'40356120'
p1537
aa(lp1538
S'40474210'
p1539
aS'40418495'
p1540
aa(lp1541
S'41101274'
p1542
aS'41097328'
p1543
aa(lp1544
S'41312881'
p1545
aS'41307166'
p1546
aa(lp1547
S'41465425'
p1548
aS'41460974'
p1549
aa(lp1550
S'41809609'
p1551
aS'41809609'
p1552
aa(lp1553
S'42595972'
p1554
aS'42590621'
p1555
aa(lp1556
S'47900030'
p1557
aS'47897578'
p1558
aa(lp1559
S'47932451'
p1560
aS'47929892'
p1561
aa(lp1562
S'51248540'
p1563
aS'51107578'
p1564
aa(lp1565
S'51682581'
p1566
aS'51679594'
p1567
aa(lp1568
S'54497921'
p1569
aS'54497921'
p1570
aa(lp1571
S'55438821'
p1572
aS'55438471'
p1573
aa(lp1574
S'55493796'
p1575
aS'55487776'
p1576
aa(lp1577
S'55760329'
p1578
aS'55759382'
p1579
aa(lp1580
S'55976328'
p1581
aS'55975602'
p1582
aa(lp1583
S'56373814'
p1584
aS'56309903'
p1585
aa(lp1586
S'56920612'
p1587
aS'56902054'
p1588
aa(lp1589
S'59632938'
p1590
aS'59625070'
p1591
aa(lp1592
S'61385124'
p1593
aS'61369601'
p1594
aa(lp1595
S'62181737'
p1596
aS'62172835'
p1597
aa(lp1598
S'62842626'
p1599
aS'62840633'
p1600
aa(lp1601
S'62990352'
p1602
aS'62973712'
p1603
aa(lp1604
S'63016213'
p1605
aS'63008804'
p1606
aa(lp1607
S'63225198'
p1608
aS'63219939'
p1609
aa(lp1610
S'63374745'
p1611
aS'63336356'
p1612
aa(lp1613
S'63392484'
p1614
aS'63385132'
p1615
aa(lp1616
S'63656710'
p1617
aS'63637150'
p1618
aa(lp1619
S'63837618'
p1620
aS'63831286'
p1621
aa(lp1622
S'63870646'
p1623
aS'63867248'
p1624
aa(lp1625
S'64776887'
p1626
aS'64776322'
p1627
aa(lp1628
S'64883598'
p1629
aS'64883598'
p1630
aa(lp1631
S'66976101'
p1632
aS'66973022'
p1633
aasS'chr16'
p1634
(lp1635
(lp1636
S'4091827'
p1637
aS'4091827'
p1638
aa(lp1639
S'4138481'
p1640
aS'4138481'
p1641
aa(lp1642
S'4254738'
p1643
aS'4254738'
p1644
aa(lp1645
S'4685369'
p1646
aS'4685369'
p1647
aa(lp1648
S'4685369'
p1649
aS'4685369'
p1650
aa(lp1651
S'4685369'
p1652
aS'4685369'
p1653
aa(lp1654
S'8947912'
p1655
aS'8946958'
p1656
aa(lp1657
S'9211840'
p1658
aS'9210913'
p1659
aa(lp1660
S'9353533'
p1661
aS'9324417'
p1662
aa(lp1663
S'9376183'
p1664
aS'9360730'
p1665
aa(lp1666
S'9419970'
p1667
aS'9419049'
p1668
aa(lp1669
S'9445882'
p1670
aS'9444919'
p1671
aa(lp1672
S'10203530'
p1673
aS'10202579'
p1674
aa(lp1675
S'10372331'
p1676
aS'10371443'
p1677
aa(lp1678
S'10400686'
p1679
aS'10399735'
p1680
aa(lp1681
S'10426053'
p1682
aS'10416609'
p1683
aa(lp1684
S'12205150'
p1685
aS'12084872'
p1686
aa(lp1687
S'12368394'
p1688
aS'12307333'
p1689
aa(lp1690
S'12382388'
p1691
aS'12377045'
p1692
aa(lp1693
S'14579773'
p1694
aS'14579773'
p1695
aa(lp1696
S'15320391'
p1697
aS'15267872'
p1698
aa(lp1699
S'15879490'
p1700
aS'15879490'
p1701
aa(lp1702
S'16108528'
p1703
aS'16106874'
p1704
aa(lp1705
S'16850384'
p1706
aS'16850384'
p1707
aa(lp1708
S'16850384'
p1709
aS'16850384'
p1710
aa(lp1711
S'16865318'
p1712
aS'16865318'
p1713
aa(lp1714
S'16895303'
p1715
aS'16895303'
p1716
aa(lp1717
S'16895303'
p1718
aS'16895303'
p1719
aa(lp1720
S'16895303'
p1721
aS'16895303'
p1722
aa(lp1723
S'16903811'
p1724
aS'16903811'
p1725
aa(lp1726
S'16922487'
p1727
aS'16922487'
p1728
aa(lp1729
S'17547680'
p1730
aS'17496630'
p1731
aa(lp1732
S'17990085'
p1733
aS'17957468'
p1734
aa(lp1735
S'18020576'
p1736
aS'18002734'
p1737
aa(lp1738
S'18079266'
p1739
aS'18075167'
p1740
aa(lp1741
S'18227093'
p1742
aS'18227093'
p1743
aa(lp1744
S'18589231'
p1745
aS'18589231'
p1746
aa(lp1747
S'20267174'
p1748
aS'20267174'
p1749
aa(lp1750
S'20278267'
p1751
aS'20278267'
p1752
aa(lp1753
S'22886383'
p1754
aS'22886383'
p1755
aa(lp1756
S'26244532'
p1757
aS'26231981'
p1758
aa(lp1759
S'26244532'
p1760
aS'26231981'
p1761
aa(lp1762
S'26472938'
p1763
aS'26455882'
p1764
aa(lp1765
S'26913005'
p1766
aS'26913005'
p1767
aa(lp1768
S'26943974'
p1769
aS'26943974'
p1770
aa(lp1771
S'29333488'
p1772
aS'29333488'
p1773
aa(lp1774
S'29504645'
p1775
aS'29368282'
p1776
aa(lp1777
S'30284530'
p1778
aS'30279928'
p1779
aa(lp1780
S'30400287'
p1781
aS'30399091'
p1782
aa(lp1783
S'34219501'
p1784
aS'34149414'
p1785
aa(lp1786
S'37112889'
p1787
aS'37106045'
p1788
aa(lp1789
S'37144899'
p1790
aS'37135661'
p1791
aa(lp1792
S'37769390'
p1793
aS'37769390'
p1794
aa(lp1795
S'38422430'
p1796
aS'38422430'
p1797
aa(lp1798
S'39535633'
p1799
aS'39491529'
p1800
aa(lp1801
S'39900166'
p1802
aS'39491529'
p1803
aa(lp1804
S'41130471'
p1805
aS'41130471'
p1806
aa(lp1807
S'47447575'
p1808
aS'47431143'
p1809
aa(lp1810
S'47477799'
p1811
aS'47454353'
p1812
aa(lp1813
S'48900786'
p1814
aS'48892241'
p1815
aa(lp1816
S'49711346'
p1817
aS'49696628'
p1818
aa(lp1819
S'56232271'
p1820
aS'56225397'
p1821
aa(lp1822
S'61394172'
p1823
aS'61342175'
p1824
aa(lp1825
S'61465552'
p1826
aS'61243178'
p1827
aa(lp1828
S'61818931'
p1829
aS'61808510'
p1830
aa(lp1831
S'61893740'
p1832
aS'61891304'
p1833
aa(lp1834
S'61904106'
p1835
aS'61902645'
p1836
aa(lp1837
S'61933014'
p1838
aS'61931245'
p1839
aa(lp1840
S'61949161'
p1841
aS'61943647'
p1842
aa(lp1843
S'61970801'
p1844
aS'61969129'
p1845
aasS'chr15'
p1846
(lp1847
(lp1848
S'3492831'
p1849
aS'3463778'
p1850
aa(lp1851
S'4093014'
p1852
aS'4091879'
p1853
aa(lp1854
S'4287170'
p1855
aS'4287170'
p1856
aa(lp1857
S'4656002'
p1858
aS'4649806'
p1859
aa(lp1860
S'5283992'
p1861
aS'5283992'
p1862
aa(lp1863
S'5287251'
p1864
aS'5287251'
p1865
aa(lp1866
S'5665248'
p1867
aS'5651513'
p1868
aa(lp1869
S'5889887'
p1870
aS'5864016'
p1871
aa(lp1872
S'6875102'
p1873
aS'6869380'
p1874
aa(lp1875
S'7885429'
p1876
aS'7872863'
p1877
aa(lp1878
S'10134651'
p1879
aS'10133758'
p1880
aa(lp1881
S'11362176'
p1882
aS'11301484'
p1883
aa(lp1884
S'12463627'
p1885
aS'12463627'
p1886
aa(lp1887
S'16550383'
p1888
aS'16513887'
p1889
aa(lp1890
S'16627396'
p1891
aS'16607771'
p1892
aa(lp1893
S'16661130'
p1894
aS'16642396'
p1895
aa(lp1896
S'16677697'
p1897
aS'16667086'
p1898
aa(lp1899
S'17814006'
p1900
aS'17797902'
p1901
aa(lp1902
S'17861079'
p1903
aS'17846786'
p1904
aa(lp1905
S'20483775'
p1906
aS'20482806'
p1907
aa(lp1908
S'20520728'
p1909
aS'20519789'
p1910
aa(lp1911
S'20537048'
p1912
aS'20536112'
p1913
aa(lp1914
S'20615953'
p1915
aS'20615008'
p1916
aa(lp1917
S'20710753'
p1918
aS'20710753'
p1919
aa(lp1920
S'20794315'
p1921
aS'20792034'
p1922
aa(lp1923
S'21005568'
p1924
aS'21004364'
p1925
aa(lp1926
S'21045657'
p1927
aS'21044438'
p1928
aa(lp1929
S'21394513'
p1930
aS'21330586'
p1931
aa(lp1932
S'29997088'
p1933
aS'29997088'
p1934
aa(lp1935
S'30385232'
p1936
aS'30374138'
p1937
aa(lp1938
S'32685025'
p1939
aS'32612378'
p1940
aa(lp1941
S'33629393'
p1942
aS'33562939'
p1943
aa(lp1944
S'34889990'
p1945
aS'34846690'
p1946
aa(lp1947
S'35481384'
p1948
aS'35481384'
p1949
aa(lp1950
S'38245669'
p1951
aS'38245669'
p1952
aa(lp1953
S'40191871'
p1954
aS'40191871'
p1955
aa(lp1956
S'42187419'
p1957
aS'42187419'
p1958
aa(lp1959
S'44047615'
p1960
aS'44046489'
p1961
aa(lp1962
S'44285844'
p1963
aS'44213545'
p1964
aa(lp1965
S'45486426'
p1966
aS'45469191'
p1967
aa(lp1968
S'46060978'
p1969
aS'46034544'
p1970
aa(lp1971
S'48889621'
p1972
aS'48840441'
p1973
aa(lp1974
S'54486775'
p1975
aS'54484413'
p1976
aa(lp1977
S'54570236'
p1978
aS'54562826'
p1979
aa(lp1980
S'56254848'
p1981
aS'56226845'
p1982
aa(lp1983
S'56332422'
p1984
aS'56286554'
p1985
aa(lp1986
S'58800764'
p1987
aS'58772221'
p1988
aa(lp1989
S'62601149'
p1990
aS'62599896'
p1991
aa(lp1992
S'62626055'
p1993
aS'62624692'
p1994
aa(lp1995
S'64324269'
p1996
aS'64315663'
p1997
aasS'chr14'
p1998
(lp1999
(lp2000
S'3787098'
p2001
aS'3786200'
p2002
aa(lp2003
S'5646368'
p2004
aS'5645405'
p2005
aa(lp2006
S'5957240'
p2007
aS'5942244'
p2008
aa(lp2009
S'6100153'
p2010
aS'6071207'
p2011
aa(lp2012
S'8577753'
p2013
aS'8527824'
p2014
aa(lp2015
S'9136871'
p2016
aS'9136871'
p2017
aa(lp2018
S'9137253'
p2019
aS'9137253'
p2020
aa(lp2021
S'9397268'
p2022
aS'9397268'
p2023
aa(lp2024
S'10022463'
p2025
aS'10022463'
p2026
aa(lp2027
S'10022703'
p2028
aS'10022703'
p2029
aa(lp2030
S'10026657'
p2031
aS'10026657'
p2032
aa(lp2033
S'11077825'
p2034
aS'11075802'
p2035
aa(lp2036
S'11122448'
p2037
aS'11122448'
p2038
aa(lp2039
S'12132662'
p2040
aS'12132662'
p2041
aa(lp2042
S'16692088'
p2043
aS'16595268'
p2044
aa(lp2045
S'21926861'
p2046
aS'21926861'
p2047
aa(lp2048
S'21927567'
p2049
aS'21927567'
p2050
aa(lp2051
S'22022208'
p2052
aS'21872311'
p2053
aa(lp2054
S'22367549'
p2055
aS'22363171'
p2056
aa(lp2057
S'22866773'
p2058
aS'22831113'
p2059
aa(lp2060
S'23081252'
p2061
aS'23074988'
p2062
aa(lp2063
S'23081252'
p2064
aS'23074988'
p2065
aa(lp2066
S'23627974'
p2067
aS'23600851'
p2068
aa(lp2069
S'25267580'
p2070
aS'25267580'
p2071
aa(lp2072
S'25267580'
p2073
aS'25267580'
p2074
aa(lp2075
S'30294542'
p2076
aS'30293630'
p2077
aa(lp2078
S'30376984'
p2079
aS'30376572'
p2080
aa(lp2081
S'35073702'
p2082
aS'35071773'
p2083
aa(lp2084
S'39437118'
p2085
aS'39432923'
p2086
aa(lp2087
S'39710751'
p2088
aS'39710561'
p2089
aa(lp2090
S'41539488'
p2091
aS'41537828'
p2092
aa(lp2093
S'41613746'
p2094
aS'41610427'
p2095
aa(lp2096
S'42259278'
p2097
aS'42259278'
p2098
aa(lp2099
S'43299567'
p2100
aS'43299567'
p2101
aa(lp2102
S'43304399'
p2103
aS'43301960'
p2104
aa(lp2105
S'45815777'
p2106
aS'45763288'
p2107
aa(lp2108
S'46559265'
p2109
aS'46547658'
p2110
aa(lp2111
S'58205629'
p2112
aS'58156982'
p2113
aa(lp2114
S'58410356'
p2115
aS'58403292'
p2116
aa(lp2117
S'58457595'
p2118
aS'58427273'
p2119
aa(lp2120
S'58674517'
p2121
aS'58591094'
p2122
aa(lp2123
S'58789216'
p2124
aS'58728315'
p2125
aa(lp2126
S'59417779'
p2127
aS'59255277'
p2128
aasS'chr19'
p2129
(lp2130
(lp2131
S'4365902'
p2132
aS'4341401'
p2133
aa(lp2134
S'5290786'
p2135
aS'5283507'
p2136
aa(lp2137
S'5446731'
p2138
aS'5415497'
p2139
aa(lp2140
S'7360595'
p2141
aS'7292211'
p2142
aa(lp2143
S'16647685'
p2144
aS'16647685'
p2145
aa(lp2146
S'20659956'
p2147
aS'20650590'
p2148
aa(lp2149
S'20765079'
p2150
aS'20759494'
p2151
aa(lp2152
S'21458442'
p2153
aS'21429059'
p2154
aa(lp2155
S'24194606'
p2156
aS'24193201'
p2157
aa(lp2158
S'26199901'
p2159
aS'26190284'
p2160
aa(lp2161
S'26956909'
p2162
aS'26955909'
p2163
aa(lp2164
S'27006572'
p2165
aS'26965036'
p2166
aa(lp2167
S'29417097'
p2168
aS'28629044'
p2169
aa(lp2170
S'32915549'
p2171
aS'32913757'
p2172
aa(lp2173
S'33083988'
p2174
aS'33007172'
p2175
aa(lp2176
S'33670746'
p2177
aS'33665691'
p2178
aa(lp2179
S'41456866'
p2180
aS'41456866'
p2181
aa(lp2182
S'41896848'
p2183
aS'41893802'
p2184
aasS'chr18'
p2185
(lp2186
(lp2187
S'8557420'
p2188
aS'8551091'
p2189
aa(lp2190
S'15720241'
p2191
aS'15689863'
p2192
aa(lp2193
S'23363013'
p2194
aS'23334170'
p2195
aa(lp2196
S'24397401'
p2197
aS'24320519'
p2198
aa(lp2199
S'28634120'
p2200
aS'28632559'
p2201
aa(lp2202
S'28634120'
p2203
aS'28633156'
p2204
aa(lp2205
S'28664940'
p2206
aS'28664940'
p2207
aa(lp2208
S'29172974'
p2209
aS'29172974'
p2210
aa(lp2211
S'35728282'
p2212
aS'35677268'
p2213
aa(lp2214
S'35846096'
p2215
aS'35758008'
p2216
aa(lp2217
S'36009817'
p2218
aS'36009817'
p2219
aa(lp2220
S'36442061'
p2221
aS'36403248'
p2222
aa(lp2223
S'36753289'
p2224
aS'36718221'
p2225
aa(lp2226
S'38692590'
p2227
aS'38671537'
p2228
aa(lp2229
S'41545825'
p2230
aS'41545148'
p2231
aa(lp2232
S'41583336'
p2233
aS'41564310'
p2234
aa(lp2235
S'41609051'
p2236
aS'41609051'
p2237
aa(lp2238
S'42978942'
p2239
aS'42977976'
p2240
aa(lp2241
S'43032817'
p2242
aS'43031881'
p2243
aa(lp2244
S'43150259'
p2245
aS'43149323'
p2246
aa(lp2247
S'44179855'
p2248
aS'44176692'
p2249
aa(lp2250
S'44606642'
p2251
aS'44605625'
p2252
aa(lp2253
S'45322540'
p2254
aS'45305511'
p2255
aa(lp2256
S'45864357'
p2257
aS'45851169'
p2258
aa(lp2259
S'46643653'
p2260
aS'46638965'
p2261
aa(lp2262
S'46702724'
p2263
aS'46702724'
p2264
aa(lp2265
S'49046652'
p2266
aS'49037857'
p2267
aa(lp2268
S'49230776'
p2269
aS'49230776'
p2270
aa(lp2271
S'49321482'
p2272
aS'49321482'
p2273
aa(lp2274
S'49324713'
p2275
aS'49320365'
p2276
aa(lp2277
S'49324713'
p2278
aS'49320365'
p2279
aa(lp2280
S'49335046'
p2281
aS'49320365'
p2282
aa(lp2283
S'49335046'
p2284
aS'49320365'
p2285
aa(lp2286
S'49347975'
p2287
aS'49347197'
p2288
aa(lp2289
S'49358344'
p2290
aS'49350417'
p2291
aa(lp2292
S'49713986'
p2293
aS'49713986'
p2294
aa(lp2295
S'49714167'
p2296
aS'49714167'
p2297
aa(lp2298
S'50161844'
p2299
aS'50159237'
p2300
aa(lp2301
S'50192036'
p2302
aS'50192036'
p2303
aa(lp2304
S'51535734'
p2305
aS'51528147'
p2306
aa(lp2307
S'52041157'
p2308
aS'52036264'
p2309
aa(lp2310
S'52215950'
p2311
aS'52174267'
p2312
aa(lp2313
S'52271299'
p2314
aS'52266503'
p2315
aa(lp2316
S'52826817'
p2317
aS'52822607'
p2318
aa(lp2319
S'52934194'
p2320
aS'52931254'
p2321
aa(lp2322
S'53091258'
p2323
aS'53088539'
p2324
aa(lp2325
S'53784735'
p2326
aS'53773744'
p2327
aa(lp2328
S'54732882'
p2329
aS'54732882'
p2330
aa(lp2331
S'55305859'
p2332
aS'55305859'
p2333
aa(lp2334
S'55377066'
p2335
aS'55372068'
p2336
aa(lp2337
S'55575655'
p2338
aS'55568497'
p2339
aa(lp2340
S'55787322'
p2341
aS'55782336'
p2342
aa(lp2343
S'55817398'
p2344
aS'55807918'
p2345
aa(lp2346
S'56067490'
p2347
aS'56060563'
p2348
aa(lp2349
S'56076543'
p2350
aS'56075156'
p2351
aa(lp2352
S'56325894'
p2353
aS'56269905'
p2354
aa(lp2355
S'56474263'
p2356
aS'56465960'
p2357
aa(lp2358
S'56845883'
p2359
aS'56837419'
p2360
aa(lp2361
S'57498003'
p2362
aS'57495593'
p2363
aa(lp2364
S'57509683'
p2365
aS'57498572'
p2366
aa(lp2367
S'58169739'
p2368
aS'58161227'
p2369
aa(lp2370
S'58460104'
p2371
aS'58458901'
p2372
aasS'chr38'
p2373
(lp2374
(lp2375
S'3223138'
p2376
aS'3216575'
p2377
aa(lp2378
S'3754876'
p2379
aS'3744593'
p2380
aa(lp2381
S'4716262'
p2382
aS'4669945'
p2383
aa(lp2384
S'4926501'
p2385
aS'4926501'
p2386
aa(lp2387
S'5871373'
p2388
aS'5851951'
p2389
aa(lp2390
S'8937749'
p2391
aS'8826027'
p2392
aa(lp2393
S'17894852'
p2394
aS'17894852'
p2395
aa(lp2396
S'17895124'
p2397
aS'17895124'
p2398
aa(lp2399
S'17976756'
p2400
aS'17976756'
p2401
aa(lp2402
S'20578911'
p2403
aS'20578911'
p2404
aa(lp2405
S'20691443'
p2406
aS'20670019'
p2407
aa(lp2408
S'24265454'
p2409
aS'24263418'
p2410
aa(lp2411
S'24270507'
p2412
aS'24267567'
p2413
aa(lp2414
S'24391990'
p2415
aS'24377710'
p2416
aa(lp2417
S'24684966'
p2418
aS'24653377'
p2419
aa(lp2420
S'24890905'
p2421
aS'24878292'
p2422
aa(lp2423
S'25212022'
p2424
aS'25209394'
p2425
aa(lp2426
S'25411106'
p2427
aS'25409718'
p2428
aa(lp2429
S'25701694'
p2430
aS'25696653'
p2431
aa(lp2432
S'25995929'
p2433
aS'25994975'
p2434
aa(lp2435
S'26007472'
p2436
aS'26006521'
p2437
aa(lp2438
S'26172026'
p2439
aS'26171069'
p2440
aa(lp2441
S'26279257'
p2442
aS'26278312'
p2443
aa(lp2444
S'26332684'
p2445
aS'26329119'
p2446
aa(lp2447
S'26344187'
p2448
aS'26341099'
p2449
aa(lp2450
S'26398237'
p2451
aS'26395315'
p2452
aa(lp2453
S'26684128'
p2454
aS'26681551'
p2455
aasS'chr6'
p2456
(lp2457
(lp2458
S'3745868'
p2459
aS'3732483'
p2460
aa(lp2461
S'8911855'
p2462
aS'8911855'
p2463
aa(lp2464
S'9187852'
p2465
aS'9187852'
p2466
aa(lp2467
S'9536473'
p2468
aS'9535672'
p2469
aa(lp2470
S'10155678'
p2471
aS'10152520'
p2472
aa(lp2473
S'10170349'
p2474
aS'10168431'
p2475
aa(lp2476
S'10317092'
p2477
aS'10288890'
p2478
aa(lp2479
S'10489251'
p2480
aS'10487945'
p2481
aa(lp2482
S'10595289'
p2483
aS'10586835'
p2484
aa(lp2485
S'11730642'
p2486
aS'11725685'
p2487
aa(lp2488
S'12002559'
p2489
aS'12001303'
p2490
aa(lp2491
S'12505368'
p2492
aS'12505368'
p2493
aa(lp2494
S'12505592'
p2495
aS'12505592'
p2496
aa(lp2497
S'12505803'
p2498
aS'12505803'
p2499
aa(lp2500
S'12635881'
p2501
aS'12629991'
p2502
aa(lp2503
S'12821910'
p2504
aS'12784535'
p2505
aa(lp2506
S'12875917'
p2507
aS'12843586'
p2508
aa(lp2509
S'14489248'
p2510
aS'14457809'
p2511
aa(lp2512
S'14767724'
p2513
aS'14743496'
p2514
aa(lp2515
S'15435150'
p2516
aS'15432581'
p2517
aa(lp2518
S'15464644'
p2519
aS'15464644'
p2520
aa(lp2521
S'16992283'
p2522
aS'16992283'
p2523
aa(lp2524
S'17527979'
p2525
aS'17527979'
p2526
aa(lp2527
S'18828349'
p2528
aS'18828349'
p2529
aa(lp2530
S'18864376'
p2531
aS'18864376'
p2532
aa(lp2533
S'19301794'
p2534
aS'19283372'
p2535
aa(lp2536
S'19719698'
p2537
aS'19718774'
p2538
aa(lp2539
S'19779887'
p2540
aS'19773954'
p2541
aa(lp2542
S'19841452'
p2543
aS'19816720'
p2544
aa(lp2545
S'20313781'
p2546
aS'20310430'
p2547
aa(lp2548
S'20429502'
p2549
aS'20425611'
p2550
aa(lp2551
S'20447376'
p2552
aS'20444588'
p2553
aa(lp2554
S'20680751'
p2555
aS'20678652'
p2556
aa(lp2557
S'20916009'
p2558
aS'20898959'
p2559
aa(lp2560
S'21126889'
p2561
aS'21123065'
p2562
aa(lp2563
S'21191939'
p2564
aS'21189646'
p2565
aa(lp2566
S'21278453'
p2567
aS'21267924'
p2568
aa(lp2569
S'22516317'
p2570
aS'22515816'
p2571
aa(lp2572
S'24100107'
p2573
aS'24100107'
p2574
aa(lp2575
S'24138803'
p2576
aS'24138803'
p2577
aa(lp2578
S'25505092'
p2579
aS'25463924'
p2580
aa(lp2581
S'27270034'
p2582
aS'27257837'
p2583
aa(lp2584
S'28034545'
p2585
aS'28021003'
p2586
aa(lp2587
S'28055149'
p2588
aS'28040003'
p2589
aa(lp2590
S'29359466'
p2591
aS'29353595'
p2592
aa(lp2593
S'30071122'
p2594
aS'29772227'
p2595
aa(lp2596
S'31018396'
p2597
aS'30884801'
p2598
aa(lp2599
S'31215061'
p2600
aS'31172455'
p2601
aa(lp2602
S'31901865'
p2603
aS'31901865'
p2604
aa(lp2605
S'31906748'
p2606
aS'31906748'
p2607
aa(lp2608
S'34428184'
p2609
aS'34428184'
p2610
aa(lp2611
S'34535815'
p2612
aS'34535270'
p2613
aa(lp2614
S'34542650'
p2615
aS'34541323'
p2616
aa(lp2617
S'40641442'
p2618
aS'40639003'
p2619
aa(lp2620
S'41209791'
p2621
aS'41208321'
p2622
aa(lp2623
S'41800485'
p2624
aS'41800485'
p2625
aa(lp2626
S'41906885'
p2627
aS'41879345'
p2628
aa(lp2629
S'41956136'
p2630
aS'41947350'
p2631
aa(lp2632
S'42027551'
p2633
aS'42022857'
p2634
aa(lp2635
S'42520868'
p2636
aS'42518906'
p2637
aa(lp2638
S'42548024'
p2639
aS'42546601'
p2640
aa(lp2641
S'42651244'
p2642
aS'42650140'
p2643
aa(lp2644
S'42793264'
p2645
aS'42793264'
p2646
aa(lp2647
S'42897442'
p2648
aS'42895286'
p2649
aa(lp2650
S'43619725'
p2651
aS'43619725'
p2652
aa(lp2653
S'43778855'
p2654
aS'43768890'
p2655
aa(lp2656
S'44077472'
p2657
aS'44077472'
p2658
aa(lp2659
S'44077472'
p2660
aS'44077472'
p2661
aa(lp2662
S'44189076'
p2663
aS'44188122'
p2664
aa(lp2665
S'44246417'
p2666
aS'44246417'
p2667
aa(lp2668
S'44246417'
p2669
aS'44246417'
p2670
aa(lp2671
S'44469071'
p2672
aS'44467362'
p2673
aa(lp2674
S'45331379'
p2675
aS'45331379'
p2676
aa(lp2677
S'45783009'
p2678
aS'45775334'
p2679
aa(lp2680
S'46136873'
p2681
aS'46136873'
p2682
aa(lp2683
S'51951395'
p2684
aS'51950159'
p2685
aa(lp2686
S'52411237'
p2687
aS'52393914'
p2688
aa(lp2689
S'53029728'
p2690
aS'53008454'
p2691
aa(lp2692
S'53165747'
p2693
aS'53095511'
p2694
aa(lp2695
S'54695728'
p2696
aS'54695728'
p2697
aa(lp2698
S'57775236'
p2699
aS'57764367'
p2700
aa(lp2701
S'58307873'
p2702
aS'58112972'
p2703
aa(lp2704
S'59540188'
p2705
aS'59531331'
p2706
aa(lp2707
S'64400381'
p2708
aS'64358940'
p2709
aa(lp2710
S'66572580'
p2711
aS'66541453'
p2712
aa(lp2713
S'69276367'
p2714
aS'68658284'
p2715
aa(lp2716
S'71558125'
p2717
aS'71519438'
p2718
aa(lp2719
S'73804546'
p2720
aS'73787524'
p2721
aa(lp2722
S'74738016'
p2723
aS'74718515'
p2724
aa(lp2725
S'75170051'
p2726
aS'74888664'
p2727
aa(lp2728
S'75201096'
p2729
aS'75194919'
p2730
aa(lp2731
S'77945989'
p2732
aS'77945989'
p2733
aa(lp2734
S'78050886'
p2735
aS'77997100'
p2736
aa(lp2737
S'79977715'
p2738
aS'79954007'
p2739
aasS'chr26'
p2740
(lp2741
(lp2742
S'4556685'
p2743
aS'4442001'
p2744
aa(lp2745
S'6101579'
p2746
aS'5903041'
p2747
aa(lp2748
S'9310043'
p2749
aS'9304406'
p2750
aa(lp2751
S'9752364'
p2752
aS'9751275'
p2753
aa(lp2754
S'10160903'
p2755
aS'10142011'
p2756
aa(lp2757
S'10191937'
p2758
aS'10189921'
p2759
aa(lp2760
S'11002514'
p2761
aS'10959758'
p2762
aa(lp2763
S'11227920'
p2764
aS'11167289'
p2765
aa(lp2766
S'11327883'
p2767
aS'11320578'
p2768
aa(lp2769
S'11327883'
p2770
aS'11320578'
p2771
aa(lp2772
S'11536708'
p2773
aS'11517134'
p2774
aa(lp2775
S'11650685'
p2776
aS'11642902'
p2777
aa(lp2778
S'13412408'
p2779
aS'13402485'
p2780
aa(lp2781
S'13439924'
p2782
aS'13421457'
p2783
aa(lp2784
S'13464820'
p2785
aS'13448939'
p2786
aa(lp2787
S'16896263'
p2788
aS'16812692'
p2789
aa(lp2790
S'17551105'
p2791
aS'17546858'
p2792
aa(lp2793
S'17551192'
p2794
aS'17551192'
p2795
aa(lp2796
S'18374225'
p2797
aS'18361949'
p2798
aa(lp2799
S'19179825'
p2800
aS'19174744'
p2801
aa(lp2802
S'19283342'
p2803
aS'19274688'
p2804
aa(lp2805
S'19876465'
p2806
aS'19863565'
p2807
aa(lp2808
S'19895179'
p2809
aS'19881565'
p2810
aa(lp2811
S'20355085'
p2812
aS'20334346'
p2813
aa(lp2814
S'21285194'
p2815
aS'21283510'
p2816
aa(lp2817
S'22338888'
p2818
aS'22331294'
p2819
aa(lp2820
S'23221270'
p2821
aS'23206779'
p2822
aa(lp2823
S'23308945'
p2824
aS'23302960'
p2825
aa(lp2826
S'25638287'
p2827
aS'25609168'
p2828
aa(lp2829
S'25765232'
p2830
aS'25756697'
p2831
aa(lp2832
S'26436800'
p2833
aS'26433312'
p2834
aa(lp2835
S'26669854'
p2836
aS'26667792'
p2837
aa(lp2838
S'27140665'
p2839
aS'27138196'
p2840
aa(lp2841
S'27985765'
p2842
aS'27914320'
p2843
aa(lp2844
S'31190678'
p2845
aS'31091008'
p2846
aa(lp2847
S'31215585'
p2848
aS'31206308'
p2849
aa(lp2850
S'31805202'
p2851
aS'31795815'
p2852
aa(lp2853
S'31925414'
p2854
aS'31925414'
p2855
aa(lp2856
S'32274650'
p2857
aS'32262119'
p2858
aa(lp2859
S'32322315'
p2860
aS'32322315'
p2861
aa(lp2862
S'32362656'
p2863
aS'32362656'
p2864
aa(lp2865
S'32432523'
p2866
aS'32427139'
p2867
aa(lp2868
S'33988712'
p2869
aS'33988712'
p2870
aa(lp2871
S'33989025'
p2872
aS'33989025'
p2873
aa(lp2874
S'34197331'
p2875
aS'34086916'
p2876
aa(lp2877
S'34365015'
p2878
aS'34365015'
p2879
aa(lp2880
S'40981821'
p2881
aS'40921801'
p2882
aa(lp2883
S'41555540'
p2884
aS'41541400'
p2885
aa(lp2886
S'41950692'
p2887
aS'41949853'
p2888
aasS'chr27'
p2889
(lp2890
(lp2891
S'3069338'
p2892
aS'3068399'
p2893
aa(lp2894
S'3099535'
p2895
aS'3098596'
p2896
aa(lp2897
S'3113542'
p2898
aS'3112606'
p2899
aa(lp2900
S'3204870'
p2901
aS'3203907'
p2902
aa(lp2903
S'3975924'
p2904
aS'3975924'
p2905
aa(lp2906
S'4231837'
p2907
aS'4231837'
p2908
aa(lp2909
S'4272420'
p2910
aS'4272420'
p2911
aa(lp2912
S'4301539'
p2913
aS'4301539'
p2914
aa(lp2915
S'4913488'
p2916
aS'4910147'
p2917
aa(lp2918
S'5197312'
p2919
aS'5193270'
p2920
aa(lp2921
S'5233287'
p2922
aS'5225632'
p2923
aa(lp2924
S'5284472'
p2925
aS'5273791'
p2926
aa(lp2927
S'5300819'
p2928
aS'5294125'
p2929
aa(lp2930
S'5329921'
p2931
aS'5323975'
p2932
aa(lp2933
S'5350185'
p2934
aS'5341863'
p2935
aa(lp2936
S'5430755'
p2937
aS'5425744'
p2938
aa(lp2939
S'5458087'
p2940
aS'5451448'
p2941
aa(lp2942
S'5492031'
p2943
aS'5481520'
p2944
aa(lp2945
S'5548698'
p2946
aS'5540425'
p2947
aa(lp2948
S'5577138'
p2949
aS'5570884'
p2950
aa(lp2951
S'5717283'
p2952
aS'5709946'
p2953
aa(lp2954
S'5957895'
p2955
aS'5950536'
p2956
aa(lp2957
S'6562635'
p2958
aS'6544211'
p2959
aa(lp2960
S'7759707'
p2961
aS'7754947'
p2962
aa(lp2963
S'7953617'
p2964
aS'7932469'
p2965
aa(lp2966
S'8422156'
p2967
aS'8417892'
p2968
aa(lp2969
S'8762733'
p2970
aS'8749363'
p2971
aa(lp2972
S'8873492'
p2973
aS'8871075'
p2974
aa(lp2975
S'8910507'
p2976
aS'8908519'
p2977
aa(lp2978
S'9652208'
p2979
aS'9632256'
p2980
aa(lp2981
S'9799248'
p2982
aS'9768530'
p2983
aa(lp2984
S'10026556'
p2985
aS'10004967'
p2986
aa(lp2987
S'22807745'
p2988
aS'22797441'
p2989
aa(lp2990
S'23037984'
p2991
aS'22996565'
p2992
aa(lp2993
S'23101517'
p2994
aS'23044907'
p2995
aa(lp2996
S'23521752'
p2997
aS'23442276'
p2998
aa(lp2999
S'23631014'
p3000
aS'23624466'
p3001
aa(lp3002
S'23697875'
p3003
aS'23686444'
p3004
aa(lp3005
S'23745706'
p3006
aS'23718091'
p3007
aa(lp3008
S'24480605'
p3009
aS'24476059'
p3010
aa(lp3011
S'28512536'
p3012
aS'28493237'
p3013
aa(lp3014
S'29323477'
p3015
aS'29319345'
p3016
aa(lp3017
S'29495166'
p3018
aS'29435935'
p3019
aa(lp3020
S'35895655'
p3021
aS'35617205'
p3022
aa(lp3023
S'36630259'
p3024
aS'36629112'
p3025
aa(lp3026
S'37757423'
p3027
aS'37756451'
p3028
aa(lp3029
S'37766495'
p3030
aS'37765556'
p3031
aa(lp3032
S'37810676'
p3033
aS'37809626'
p3034
aa(lp3035
S'37873544'
p3036
aS'37872599'
p3037
aa(lp3038
S'37893973'
p3039
aS'37893004'
p3040
aa(lp3041
S'37916817'
p3042
aS'37915878'
p3043
aa(lp3044
S'38083144'
p3045
aS'38060670'
p3046
aa(lp3047
S'38172558'
p3048
aS'38165128'
p3049
aa(lp3050
S'38725568'
p3051
aS'38720073'
p3052
aa(lp3053
S'40099888'
p3054
aS'40090278'
p3055
aa(lp3056
S'40456764'
p3057
aS'40326987'
p3058
aa(lp3059
S'40726022'
p3060
aS'40698309'
p3061
aa(lp3062
S'40726022'
p3063
aS'40698309'
p3064
aa(lp3065
S'41110130'
p3066
aS'41110130'
p3067
aa(lp3068
S'41110536'
p3069
aS'41110536'
p3070
aa(lp3071
S'41186268'
p3072
aS'41183475'
p3073
aa(lp3074
S'41210131'
p3075
aS'41204805'
p3076
aa(lp3077
S'41278926'
p3078
aS'41232431'
p3079
aa(lp3080
S'41500584'
p3081
aS'41496849'
p3082
aa(lp3083
S'42002562'
p3084
aS'41866322'
p3085
aa(lp3086
S'42840715'
p3087
aS'42838912'
p3088
aa(lp3089
S'42965238'
p3090
aS'42963750'
p3091
aa(lp3092
S'45326239'
p3093
aS'45302452'
p3094
aa(lp3095
S'47165322'
p3096
aS'47164187'
p3097
aa(lp3098
S'48416464'
p3099
aS'48378119'
p3100
aa(lp3101
S'48888258'
p3102
aS'48887212'
p3103
aasS'chr24'
p3104
(lp3105
(lp3106
S'3599202'
p3107
aS'3597368'
p3108
aa(lp3109
S'8389374'
p3110
aS'8348140'
p3111
aa(lp3112
S'9115983'
p3113
aS'9105041'
p3114
aa(lp3115
S'19706781'
p3116
aS'19632438'
p3117
aa(lp3118
S'19706781'
p3119
aS'19645112'
p3120
aa(lp3121
S'19845117'
p3122
aS'19844343'
p3123
aa(lp3124
S'20465847'
p3125
aS'20465847'
p3126
aa(lp3127
S'20521224'
p3128
aS'20510362'
p3129
aa(lp3130
S'21181915'
p3131
aS'21180186'
p3132
aa(lp3133
S'22613852'
p3134
aS'22588747'
p3135
aa(lp3136
S'23563731'
p3137
aS'23562208'
p3138
aa(lp3139
S'23586905'
p3140
aS'23584519'
p3141
aa(lp3142
S'23625064'
p3143
aS'23623127'
p3144
aa(lp3145
S'23644451'
p3146
aS'23641260'
p3147
aa(lp3148
S'23700228'
p3149
aS'23695675'
p3150
aa(lp3151
S'23810725'
p3152
aS'23803027'
p3153
aa(lp3154
S'23870477'
p3155
aS'23864192'
p3156
aa(lp3157
S'23888118'
p3158
aS'23886690'
p3159
aa(lp3160
S'23919432'
p3161
aS'23910661'
p3162
aa(lp3163
S'23919432'
p3164
aS'23914226'
p3165
aa(lp3166
S'23919432'
p3167
aS'23919432'
p3168
aa(lp3169
S'23959801'
p3170
aS'23955689'
p3171
aa(lp3172
S'24165794'
p3173
aS'24116170'
p3174
aa(lp3175
S'24604189'
p3176
aS'24578235'
p3177
aa(lp3178
S'25135106'
p3179
aS'25106090'
p3180
aa(lp3181
S'26229610'
p3182
aS'26223367'
p3183
aa(lp3184
S'26366307'
p3185
aS'26361591'
p3186
aa(lp3187
S'26625195'
p3188
aS'26605602'
p3189
aa(lp3190
S'27001208'
p3191
aS'27001208'
p3192
aa(lp3193
S'27159511'
p3194
aS'27156040'
p3195
aa(lp3196
S'27560591'
p3197
aS'27549156'
p3198
aa(lp3199
S'27560608'
p3200
aS'27525684'
p3201
aa(lp3202
S'28301006'
p3203
aS'28297379'
p3204
aa(lp3205
S'28868443'
p3206
aS'28864389'
p3207
aa(lp3208
S'35483004'
p3209
aS'35481501'
p3210
aa(lp3211
S'35545196'
p3212
aS'35543610'
p3213
aa(lp3214
S'35741401'
p3215
aS'35736551'
p3216
aa(lp3217
S'35825730'
p3218
aS'35824091'
p3219
aa(lp3220
S'36165646'
p3221
aS'36159487'
p3222
aa(lp3223
S'36257514'
p3224
aS'36250678'
p3225
aa(lp3226
S'36359421'
p3227
aS'36349356'
p3228
aa(lp3229
S'37637581'
p3230
aS'37637110'
p3231
aa(lp3232
S'37706092'
p3233
aS'37706092'
p3234
aa(lp3235
S'37795775'
p3236
aS'37707554'
p3237
aa(lp3238
S'39414960'
p3239
aS'39414387'
p3240
aa(lp3241
S'39577948'
p3242
aS'39548580'
p3243
aa(lp3244
S'44475416'
p3245
aS'44474178'
p3246
aa(lp3247
S'45274803'
p3248
aS'45185905'
p3249
aa(lp3250
S'45524644'
p3251
aS'45519634'
p3252
aa(lp3253
S'46138347'
p3254
aS'46090010'
p3255
aa(lp3256
S'46639039'
p3257
aS'46623813'
p3258
aa(lp3259
S'47032360'
p3260
aS'47013710'
p3261
aa(lp3262
S'49527604'
p3263
aS'49527604'
p3264
aa(lp3265
S'49537054'
p3266
aS'49537054'
p3267
aa(lp3268
S'49715611'
p3269
aS'49699840'
p3270
aa(lp3271
S'49963217'
p3272
aS'49963217'
p3273
aa(lp3274
S'49963217'
p3275
aS'49963217'
p3276
aa(lp3277
S'50455115'
p3278
aS'50455115'
p3279
aasS'chr25'
p3280
(lp3281
(lp3282
S'10782555'
p3283
aS'10719806'
p3284
aa(lp3285
S'11355259'
p3286
aS'11294670'
p3287
aa(lp3288
S'12546355'
p3289
aS'12542386'
p3290
aa(lp3291
S'12782321'
p3292
aS'12782321'
p3293
aa(lp3294
S'13347179'
p3295
aS'13325825'
p3296
aa(lp3297
S'14658045'
p3298
aS'14581754'
p3299
aa(lp3300
S'14734466'
p3301
aS'14729979'
p3302
aa(lp3303
S'15318418'
p3304
aS'15314127'
p3305
aa(lp3306
S'18366570'
p3307
aS'18288302'
p3308
aa(lp3309
S'19998899'
p3310
aS'19992671'
p3311
aa(lp3312
S'20942107'
p3313
aS'20940046'
p3314
aa(lp3315
S'21426448'
p3316
aS'21376489'
p3317
aa(lp3318
S'21521270'
p3319
aS'21432085'
p3320
aa(lp3321
S'22005113'
p3322
aS'22005113'
p3323
aa(lp3324
S'22931354'
p3325
aS'22931354'
p3326
aa(lp3327
S'23596407'
p3328
aS'23545470'
p3329
aa(lp3330
S'23596407'
p3331
aS'23545470'
p3332
aa(lp3333
S'27978257'
p3334
aS'27949888'
p3335
aa(lp3336
S'29163547'
p3337
aS'29113068'
p3338
aa(lp3339
S'30523489'
p3340
aS'30523489'
p3341
aa(lp3342
S'31177089'
p3343
aS'31177089'
p3344
aa(lp3345
S'31177089'
p3346
aS'31177089'
p3347
aa(lp3348
S'31177089'
p3349
aS'31177089'
p3350
aa(lp3351
S'31485600'
p3352
aS'31485600'
p3353
aa(lp3354
S'32988140'
p3355
aS'32975034'
p3356
aa(lp3357
S'33785862'
p3358
aS'33684042'
p3359
aa(lp3360
S'38005918'
p3361
aS'38005918'
p3362
aa(lp3363
S'42958217'
p3364
aS'42854291'
p3365
aa(lp3366
S'43509134'
p3367
aS'43506177'
p3368
aa(lp3369
S'46054408'
p3370
aS'46040352'
p3371
aa(lp3372
S'46565632'
p3373
aS'46560989'
p3374
aa(lp3375
S'46634331'
p3376
aS'46582063'
p3377
aa(lp3378
S'47203333'
p3379
aS'47191968'
p3380
aa(lp3381
S'47845820'
p3382
aS'47815659'
p3383
aa(lp3384
S'48183812'
p3385
aS'48138800'
p3386
aa(lp3387
S'48188031'
p3388
aS'48188031'
p3389
aa(lp3390
S'48377182'
p3391
aS'48297959'
p3392
aa(lp3393
S'50363179'
p3394
aS'50361230'
p3395
aa(lp3396
S'51075462'
p3397
aS'50995185'
p3398
aa(lp3399
S'51190205'
p3400
aS'51151470'
p3401
aa(lp3402
S'51894547'
p3403
aS'51894547'
p3404
aa(lp3405
S'53115786'
p3406
aS'53115786'
p3407
aa(lp3408
S'53234874'
p3409
aS'53233923'
p3410
aa(lp3411
S'53328909'
p3412
aS'53326717'
p3413
aa(lp3414
S'53510519'
p3415
aS'53510519'
p3416
aa(lp3417
S'53847130'
p3418
aS'53798855'
p3419
aa(lp3420
S'54379648'
p3421
aS'54375748'
p3422
aa(lp3423
S'54553441'
p3424
aS'54543741'
p3425
aasS'chr22'
p3426
(lp3427
(lp3428
S'3167688'
p3429
aS'3134354'
p3430
aa(lp3431
S'4786528'
p3432
aS'4786528'
p3433
aa(lp3434
S'4786674'
p3435
aS'4786674'
p3436
aa(lp3437
S'5452261'
p3438
aS'5451869'
p3439
aa(lp3440
S'6468193'
p3441
aS'6467788'
p3442
aa(lp3443
S'7452531'
p3444
aS'7395320'
p3445
aa(lp3446
S'9051645'
p3447
aS'9051645'
p3448
aa(lp3449
S'12781455'
p3450
aS'12781455'
p3451
aa(lp3452
S'33522369'
p3453
aS'33515100'
p3454
aa(lp3455
S'34383792'
p3456
aS'34363950'
p3457
aa(lp3458
S'45426570'
p3459
aS'45426570'
p3460
aa(lp3461
S'45426728'
p3462
aS'45426728'
p3463
aa(lp3464
S'45426854'
p3465
aS'45426854'
p3466
aa(lp3467
S'45427019'
p3468
aS'45427019'
p3469
aa(lp3470
S'45427155'
p3471
aS'45427155'
p3472
aa(lp3473
S'45427271'
p3474
aS'45427271'
p3475
aa(lp3476
S'48253635'
p3477
aS'48220097'
p3478
aa(lp3479
S'48961609'
p3480
aS'48715022'
p3481
aa(lp3482
S'49225954'
p3483
aS'49174850'
p3484
aa(lp3485
S'51775449'
p3486
aS'51726281'
p3487
aa(lp3488
S'55281423'
p3489
aS'55263249'
p3490
aa(lp3491
S'55488694'
p3492
aS'55470396'
p3493
aa(lp3494
S'58559882'
p3495
aS'58518663'
p3496
aa(lp3497
S'60020486'
p3498
aS'59989097'
p3499
aa(lp3500
S'63541553'
p3501
aS'63531342'
p3502
aa(lp3503
S'63863204'
p3504
aS'63858525'
p3505
aasS'chr23'
p3506
(lp3507
(lp3508
S'4776499'
p3509
aS'4776499'
p3510
aa(lp3511
S'5229149'
p3512
aS'5229149'
p3513
aa(lp3514
S'6824923'
p3515
aS'6743034'
p3516
aa(lp3517
S'6856251'
p3518
aS'6855168'
p3519
aa(lp3520
S'8837798'
p3521
aS'8837798'
p3522
aa(lp3523
S'10757616'
p3524
aS'10757616'
p3525
aa(lp3526
S'11368676'
p3527
aS'11291263'
p3528
aa(lp3529
S'11537499'
p3530
aS'11431133'
p3531
aa(lp3532
S'11962846'
p3533
aS'11948964'
p3534
aa(lp3535
S'12087096'
p3536
aS'12081866'
p3537
aa(lp3538
S'12920584'
p3539
aS'12916995'
p3540
aa(lp3541
S'13582346'
p3542
aS'13569188'
p3543
aa(lp3544
S'15138195'
p3545
aS'15136452'
p3546
aa(lp3547
S'15276077'
p3548
aS'15276077'
p3549
aa(lp3550
S'22873662'
p3551
aS'22871111'
p3552
aa(lp3553
S'26384557'
p3554
aS'26357317'
p3555
aa(lp3556
S'33931074'
p3557
aS'33851689'
p3558
aa(lp3559
S'46765765'
p3560
aS'46731633'
p3561
aa(lp3562
S'48324573'
p3563
aS'48300523'
p3564
aa(lp3565
S'48963607'
p3566
aS'48962565'
p3567
aa(lp3568
S'50306212'
p3569
aS'50302504'
p3570
aa(lp3571
S'52112928'
p3572
aS'52024084'
p3573
aa(lp3574
S'52238574'
p3575
aS'52238574'
p3576
aa(lp3577
S'52698888'
p3578
aS'52622510'
p3579
aasS'chr20'
p3580
(lp3581
(lp3582
S'3844896'
p3583
aS'3784055'
p3584
aa(lp3585
S'5091842'
p3586
aS'5075054'
p3587
aa(lp3588
S'5778446'
p3589
aS'5758613'
p3590
aa(lp3591
S'5932713'
p3592
aS'5929571'
p3593
aa(lp3594
S'5932713'
p3595
aS'5929571'
p3596
aa(lp3597
S'5975608'
p3598
aS'5949456'
p3599
aa(lp3600
S'7620876'
p3601
aS'7577566'
p3602
aa(lp3603
S'8230857'
p3604
aS'8230857'
p3605
aa(lp3606
S'8341505'
p3607
aS'8341036'
p3608
aa(lp3609
S'8641466'
p3610
aS'8636211'
p3611
aa(lp3612
S'8760252'
p3613
aS'8755879'
p3614
aa(lp3615
S'9212068'
p3616
aS'9138911'
p3617
aa(lp3618
S'9409176'
p3619
aS'9403634'
p3620
aa(lp3621
S'9707121'
p3622
aS'9656813'
p3623
aa(lp3624
S'10971540'
p3625
aS'10971540'
p3626
aa(lp3627
S'11100448'
p3628
aS'11095911'
p3629
aa(lp3630
S'11214065'
p3631
aS'11209597'
p3632
aa(lp3633
S'11804886'
p3634
aS'11782228'
p3635
aa(lp3636
S'12380683'
p3637
aS'12362058'
p3638
aa(lp3639
S'12400490'
p3640
aS'12387753'
p3641
aa(lp3642
S'16225921'
p3643
aS'16216141'
p3644
aa(lp3645
S'24884775'
p3646
aS'24853854'
p3647
aa(lp3648
S'25752975'
p3649
aS'25722634'
p3650
aa(lp3651
S'34108777'
p3652
aS'33351491'
p3653
aa(lp3654
S'34108777'
p3655
aS'33351491'
p3656
aa(lp3657
S'36756151'
p3658
aS'36711720'
p3659
aa(lp3660
S'37782891'
p3661
aS'37772439'
p3662
aa(lp3663
S'39111567'
p3664
aS'39104951'
p3665
aa(lp3666
S'39733242'
p3667
aS'39719805'
p3668
aa(lp3669
S'40457482'
p3670
aS'40457482'
p3671
aa(lp3672
S'40496731'
p3673
aS'40496731'
p3674
aa(lp3675
S'40542749'
p3676
aS'40538552'
p3677
aa(lp3678
S'40960055'
p3679
aS'40960055'
p3680
aa(lp3681
S'41525636'
p3682
aS'41525636'
p3683
aa(lp3684
S'42094683'
p3685
aS'42076113'
p3686
aa(lp3687
S'42133266'
p3688
aS'42129925'
p3689
aa(lp3690
S'42778256'
p3691
aS'42710036'
p3692
aa(lp3693
S'42813641'
p3694
aS'42810020'
p3695
aa(lp3696
S'42819814'
p3697
aS'42815100'
p3698
aa(lp3699
S'42886502'
p3700
aS'42876969'
p3701
aa(lp3702
S'42889540'
p3703
aS'42888460'
p3704
aa(lp3705
S'43143485'
p3706
aS'43143485'
p3707
aa(lp3708
S'43143962'
p3709
aS'43143962'
p3710
aa(lp3711
S'43549102'
p3712
aS'43518605'
p3713
aa(lp3714
S'43791925'
p3715
aS'43790027'
p3716
aa(lp3717
S'43846554'
p3718
aS'43822867'
p3719
aa(lp3720
S'44923736'
p3721
aS'44904399'
p3722
aa(lp3723
S'45262153'
p3724
aS'45231045'
p3725
aa(lp3726
S'45296903'
p3727
aS'45294180'
p3728
aa(lp3729
S'45383165'
p3730
aS'45382085'
p3731
aa(lp3732
S'45424952'
p3733
aS'45423832'
p3734
aa(lp3735
S'45615751'
p3736
aS'45606018'
p3737
aa(lp3738
S'46604440'
p3739
aS'46604440'
p3740
aa(lp3741
S'47020302'
p3742
aS'47016515'
p3743
aa(lp3744
S'47334362'
p3745
aS'47334362'
p3746
aa(lp3747
S'47481952'
p3748
aS'47479237'
p3749
aa(lp3750
S'47722322'
p3751
aS'47709377'
p3752
aa(lp3753
S'48074039'
p3754
aS'48072720'
p3755
aa(lp3756
S'49300851'
p3757
aS'49296508'
p3758
aa(lp3759
S'49300851'
p3760
aS'49296508'
p3761
aa(lp3762
S'49354767'
p3763
aS'49337587'
p3764
aa(lp3765
S'49819037'
p3766
aS'49802556'
p3767
aa(lp3768
S'50147431'
p3769
aS'50137163'
p3770
aa(lp3771
S'50504387'
p3772
aS'50503457'
p3773
aa(lp3774
S'50971515'
p3775
aS'50932491'
p3776
aa(lp3777
S'51062184'
p3778
aS'51023011'
p3779
aa(lp3780
S'51221467'
p3781
aS'51206900'
p3782
aa(lp3783
S'51426727'
p3784
aS'51418218'
p3785
aa(lp3786
S'51442624'
p3787
aS'51442624'
p3788
aa(lp3789
S'51594646'
p3790
aS'51594646'
p3791
aa(lp3792
S'51594828'
p3793
aS'51594828'
p3794
aa(lp3795
S'51621802'
p3796
aS'51621802'
p3797
aa(lp3798
S'51622031'
p3799
aS'51622031'
p3800
aa(lp3801
S'51622161'
p3802
aS'51622161'
p3803
aa(lp3804
S'52339536'
p3805
aS'52336833'
p3806
aa(lp3807
S'52572507'
p3808
aS'52571541'
p3809
aa(lp3810
S'52817689'
p3811
aS'52815458'
p3812
aa(lp3813
S'52952283'
p3814
aS'52947340'
p3815
aa(lp3816
S'53414748'
p3817
aS'53414748'
p3818
aa(lp3819
S'53830942'
p3820
aS'53823042'
p3821
aa(lp3822
S'53951664'
p3823
aS'53949362'
p3824
aa(lp3825
S'53955871'
p3826
aS'53952233'
p3827
aa(lp3828
S'55423348'
p3829
aS'55415056'
p3830
aa(lp3831
S'55522762'
p3832
aS'55519911'
p3833
aa(lp3834
S'55615398'
p3835
aS'55614643'
p3836
aa(lp3837
S'55723000'
p3838
aS'55720277'
p3839
aa(lp3840
S'56108110'
p3841
aS'56092507'
p3842
aa(lp3843
S'56322401'
p3844
aS'56287488'
p3845
aa(lp3846
S'56410980'
p3847
aS'56349900'
p3848
aa(lp3849
S'56552617'
p3850
aS'56549204'
p3851
aa(lp3852
S'57122104'
p3853
aS'57120858'
p3854
aa(lp3855
S'57154107'
p3856
aS'57153054'
p3857
aa(lp3858
S'57170056'
p3859
aS'57169003'
p3860
aa(lp3861
S'57938143'
p3862
aS'57938143'
p3863
aa(lp3864
S'58044975'
p3865
aS'58044975'
p3866
aa(lp3867
S'58433052'
p3868
aS'58411316'
p3869
aa(lp3870
S'58677726'
p3871
aS'58677726'
p3872
aa(lp3873
S'58811246'
p3874
aS'58785185'
p3875
aa(lp3876
S'59146268'
p3877
aS'59126904'
p3878
aa(lp3879
S'59245682'
p3880
aS'59229823'
p3881
aa(lp3882
S'59245682'
p3883
aS'59229823'
p3884
aa(lp3885
S'59589463'
p3886
aS'59582002'
p3887
aa(lp3888
S'59875462'
p3889
aS'59870833'
p3890
aa(lp3891
S'59911267'
p3892
aS'59910097'
p3893
aa(lp3894
S'59929152'
p3895
aS'59926296'
p3896
aa(lp3897
S'60487806'
p3898
aS'60487806'
p3899
aa(lp3900
S'60900110'
p3901
aS'60897214'
p3902
aa(lp3903
S'60932079'
p3904
aS'60930366'
p3905
aa(lp3906
S'61127159'
p3907
aS'61123514'
p3908
aasS'chr21'
p3909
(lp3910
(lp3911
S'3551637'
p3912
aS'3446444'
p3913
aa(lp3914
S'9283629'
p3915
aS'9283629'
p3916
aa(lp3917
S'9546058'
p3918
aS'9535904'
p3919
aa(lp3920
S'13463424'
p3921
aS'13399124'
p3922
aa(lp3923
S'13891317'
p3924
aS'13797096'
p3925
aa(lp3926
S'14689957'
p3927
aS'14656294'
p3928
aa(lp3929
S'22546565'
p3930
aS'22546565'
p3931
aa(lp3932
S'23595638'
p3933
aS'23595638'
p3934
aa(lp3935
S'24163815'
p3936
aS'24140122'
p3937
aa(lp3938
S'26046670'
p3939
aS'26038499'
p3940
aa(lp3941
S'26192066'
p3942
aS'26186426'
p3943
aa(lp3944
S'26245581'
p3945
aS'26245581'
p3946
aa(lp3947
S'26514859'
p3948
aS'26490062'
p3949
aa(lp3950
S'27292418'
p3951
aS'27286479'
p3952
aa(lp3953
S'27314848'
p3954
aS'27312117'
p3955
aa(lp3956
S'28601569'
p3957
aS'28601569'
p3958
aa(lp3959
S'29004409'
p3960
aS'28991848'
p3961
aa(lp3962
S'29082707'
p3963
aS'29080851'
p3964
aa(lp3965
S'29642569'
p3966
aS'29641537'
p3967
aa(lp3968
S'30447971'
p3969
aS'30446987'
p3970
aa(lp3971
S'30574346'
p3972
aS'30573404'
p3973
aa(lp3974
S'30776523'
p3975
aS'30775587'
p3976
aa(lp3977
S'31300886'
p3978
aS'31299526'
p3979
aa(lp3980
S'31300888'
p3981
aS'31299526'
p3982
aa(lp3983
S'31306973'
p3984
aS'31305639'
p3985
aa(lp3986
S'31306975'
p3987
aS'31305639'
p3988
aa(lp3989
S'31807097'
p3990
aS'31799879'
p3991
aa(lp3992
S'31850374'
p3993
aS'31836789'
p3994
aa(lp3995
S'32006234'
p3996
aS'32005253'
p3997
aa(lp3998
S'32093203'
p3999
aS'32092243'
p4000
aa(lp4001
S'32159373'
p4002
aS'32158410'
p4003
aa(lp4004
S'32326700'
p4005
aS'32325752'
p4006
aa(lp4007
S'33114263'
p4008
aS'33109052'
p4009
aa(lp4010
S'33412767'
p4011
aS'33411810'
p4012
aa(lp4013
S'33698672'
p4014
aS'33697727'
p4015
aa(lp4016
S'34682637'
p4017
aS'34681692'
p4018
aa(lp4019
S'35292125'
p4020
aS'35289194'
p4021
aa(lp4022
S'36662594'
p4023
aS'36660916'
p4024
aa(lp4025
S'36833657'
p4026
aS'36833657'
p4027
aa(lp4028
S'36883181'
p4029
aS'36849767'
p4030
aa(lp4031
S'37204069'
p4032
aS'37199049'
p4033
aa(lp4034
S'38262426'
p4035
aS'38221639'
p4036
aa(lp4037
S'39610754'
p4038
aS'39608104'
p4039
aa(lp4040
S'40851062'
p4041
aS'40849207'
p4042
aa(lp4043
S'40870349'
p4044
aS'40866924'
p4045
aa(lp4046
S'41001430'
p4047
aS'40998419'
p4048
aa(lp4049
S'41107923'
p4050
aS'41106047'
p4051
aa(lp4052
S'41109781'
p4053
aS'41106047'
p4054
aa(lp4055
S'41109781'
p4056
aS'41106047'
p4057
aa(lp4058
S'43506504'
p4059
aS'43465141'
p4060
aa(lp4061
S'43757824'
p4062
aS'43739336'
p4063
aa(lp4064
S'43841805'
p4065
aS'43838695'
p4066
aa(lp4067
S'43857778'
p4068
aS'43855079'
p4069
aa(lp4070
S'44081067'
p4071
aS'44035777'
p4072
aa(lp4073
S'44081067'
p4074
aS'44035777'
p4075
aa(lp4076
S'44081067'
p4077
aS'44035777'
p4078
aa(lp4079
S'44081067'
p4080
aS'44035777'
p4081
aa(lp4082
S'47175116'
p4083
aS'47104424'
p4084
aa(lp4085
S'47245387'
p4086
aS'47206673'
p4087
aa(lp4088
S'47606525'
p4089
aS'47601684'
p4090
aa(lp4091
S'47631703'
p4092
aS'47618401'
p4093
aa(lp4094
S'51386908'
p4095
aS'51386142'
p4096
aa(lp4097
S'53530364'
p4098
aS'53514694'
p4099
aa(lp4100
S'53636551'
p4101
aS'53629843'
p4102
aa(lp4103
S'53913462'
p4104
aS'53907642'
p4105
aa(lp4106
S'53931831'
p4107
aS'53931831'
p4108
aasS'chr28'
p4109
(lp4110
(lp4111
S'4986588'
p4112
aS'4931272'
p4113
aa(lp4114
S'5217335'
p4115
aS'5170029'
p4116
aa(lp4117
S'5294973'
p4118
aS'5294019'
p4119
aa(lp4120
S'5897025'
p4121
aS'5894100'
p4122
aa(lp4123
S'5901729'
p4124
aS'5894100'
p4125
aa(lp4126
S'6976159'
p4127
aS'6945883'
p4128
aa(lp4129
S'7482465'
p4130
aS'7482465'
p4131
aa(lp4132
S'7703078'
p4133
aS'7703078'
p4134
aa(lp4135
S'7703078'
p4136
aS'7703078'
p4137
aa(lp4138
S'9819197'
p4139
aS'9819197'
p4140
aa(lp4141
S'9819197'
p4142
aS'9819197'
p4143
aa(lp4144
S'9966486'
p4145
aS'9844172'
p4146
aa(lp4147
S'10412866'
p4148
aS'10205716'
p4149
aa(lp4150
S'10818531'
p4151
aS'10800218'
p4152
aa(lp4153
S'11480054'
p4154
aS'11208360'
p4155
aa(lp4156
S'11748118'
p4157
aS'11725175'
p4158
aa(lp4159
S'15374291'
p4160
aS'15349422'
p4161
aa(lp4162
S'15736252'
p4163
aS'15667014'
p4164
aa(lp4165
S'17424128'
p4166
aS'17406723'
p4167
aa(lp4168
S'17941126'
p4169
aS'17941126'
p4170
aa(lp4171
S'17990946'
p4172
aS'17974723'
p4173
aa(lp4174
S'18768078'
p4175
aS'18768078'
p4176
aa(lp4177
S'18919122'
p4178
aS'18919122'
p4179
aa(lp4180
S'27910061'
p4181
aS'27908600'
p4182
aa(lp4183
S'30184160'
p4184
aS'30168954'
p4185
aa(lp4186
S'32404333'
p4187
aS'32396920'
p4188
aa(lp4189
S'32997174'
p4190
aS'32948546'
p4191
aa(lp4192
S'34406406'
p4193
aS'34305079'
p4194
aa(lp4195
S'40592070'
p4196
aS'40592070'
p4197
aa(lp4198
S'41424823'
p4199
aS'41202034'
p4200
aa(lp4201
S'43558813'
p4202
aS'43443637'
p4203
aa(lp4204
S'43835051'
p4205
aS'43835051'
p4206
aa(lp4207
S'44099048'
p4208
aS'44089030'
p4209
aa(lp4210
S'44178586'
p4211
aS'44178586'
p4212
aasS'chr29'
p4213
(lp4214
(lp4215
S'3245972'
p4216
aS'3026452'
p4217
aa(lp4218
S'3360039'
p4219
aS'3309621'
p4220
aa(lp4221
S'4158610'
p4222
aS'4156088'
p4223
aa(lp4224
S'8058521'
p4225
aS'8032427'
p4226
aa(lp4227
S'9142082'
p4228
aS'9131752'
p4229
aa(lp4230
S'14044708'
p4231
aS'13956570'
p4232
aa(lp4233
S'14997038'
p4234
aS'14970895'
p4235
aa(lp4236
S'17267202'
p4237
aS'17267202'
p4238
aa(lp4239
S'18837148'
p4240
aS'18835210'
p4241
aa(lp4242
S'19417583'
p4243
aS'19347394'
p4244
aa(lp4245
S'21199287'
p4246
aS'20819701'
p4247
aa(lp4248
S'21884335'
p4249
aS'21804274'
p4250
aa(lp4251
S'22704319'
p4252
aS'22671756'
p4253
aa(lp4254
S'24604148'
p4255
aS'24248153'
p4256
aa(lp4257
S'24883866'
p4258
aS'24880881'
p4259
aa(lp4260
S'29421473'
p4261
aS'29383390'
p4262
aa(lp4263
S'30186972'
p4264
aS'30184313'
p4265
aa(lp4266
S'32268120'
p4267
aS'32268120'
p4268
aa(lp4269
S'34871707'
p4270
aS'34862479'
p4271
aa(lp4272
S'34949157'
p4273
aS'34938797'
p4274
aa(lp4275
S'34978881'
p4276
aS'34962850'
p4277
aa(lp4278
S'35896148'
p4279
aS'35753331'
p4280
aasS'chr7'
p4281
(lp4282
(lp4283
S'3032819'
p4284
aS'3026210'
p4285
aa(lp4286
S'3073015'
p4287
aS'3045925'
p4288
aa(lp4289
S'3232672'
p4290
aS'3230673'
p4291
aa(lp4292
S'4523990'
p4293
aS'4517491'
p4294
aa(lp4295
S'4942938'
p4296
aS'4900610'
p4297
aa(lp4298
S'7011779'
p4299
aS'7011779'
p4300
aa(lp4301
S'7011965'
p4302
aS'7011965'
p4303
aa(lp4304
S'8616683'
p4305
aS'8549448'
p4306
aa(lp4307
S'8892343'
p4308
aS'8888782'
p4309
aa(lp4310
S'9042628'
p4311
aS'9026401'
p4312
aa(lp4313
S'9543040'
p4314
aS'9543040'
p4315
aa(lp4316
S'9543040'
p4317
aS'9543040'
p4318
aa(lp4319
S'9606369'
p4320
aS'9606369'
p4321
aa(lp4322
S'9606369'
p4323
aS'9606369'
p4324
aa(lp4325
S'9606916'
p4326
aS'9606916'
p4327
aa(lp4328
S'9702964'
p4329
aS'9690861'
p4330
aa(lp4331
S'11048140'
p4332
aS'11048140'
p4333
aa(lp4334
S'11366904'
p4335
aS'11339516'
p4336
aa(lp4337
S'12788287'
p4338
aS'12768464'
p4339
aa(lp4340
S'17339165'
p4341
aS'17125423'
p4342
aa(lp4343
S'18701435'
p4344
aS'18693648'
p4345
aa(lp4346
S'18701435'
p4347
aS'18693648'
p4348
aa(lp4349
S'18754150'
p4350
aS'18753016'
p4351
aa(lp4352
S'18962763'
p4353
aS'18943580'
p4354
aa(lp4355
S'19584029'
p4356
aS'19529164'
p4357
aa(lp4358
S'19904717'
p4359
aS'19875316'
p4360
aa(lp4361
S'22478382'
p4362
aS'22463352'
p4363
aa(lp4364
S'22638829'
p4365
aS'22633772'
p4366
aa(lp4367
S'23909386'
p4368
aS'23893388'
p4369
aa(lp4370
S'25566847'
p4371
aS'25566847'
p4372
aa(lp4373
S'26507910'
p4374
aS'26507910'
p4375
aa(lp4376
S'29309718'
p4377
aS'29302216'
p4378
aa(lp4379
S'29778254'
p4380
aS'29778254'
p4381
aa(lp4382
S'29784098'
p4383
aS'29784098'
p4384
aa(lp4385
S'30314054'
p4386
aS'30302664'
p4387
aa(lp4388
S'30585436'
p4389
aS'30566862'
p4390
aa(lp4391
S'30712721'
p4392
aS'30688660'
p4393
aa(lp4394
S'31865405'
p4395
aS'31855595'
p4396
aa(lp4397
S'31962961'
p4398
aS'31925214'
p4399
aa(lp4400
S'32453736'
p4401
aS'32431111'
p4402
aa(lp4403
S'32822119'
p4404
aS'32797101'
p4405
aa(lp4406
S'33199870'
p4407
aS'33175782'
p4408
aa(lp4409
S'33627568'
p4410
aS'33550397'
p4411
aa(lp4412
S'35963677'
p4413
aS'35910663'
p4414
aa(lp4415
S'37286075'
p4416
aS'37286075'
p4417
aa(lp4418
S'38966799'
p4419
aS'38966799'
p4420
aa(lp4421
S'40458579'
p4422
aS'40458579'
p4423
aa(lp4424
S'41133825'
p4425
aS'41118193'
p4426
aa(lp4427
S'41935388'
p4428
aS'41912436'
p4429
aa(lp4430
S'43496145'
p4431
aS'43485896'
p4432
aa(lp4433
S'44299246'
p4434
aS'44283002'
p4435
aa(lp4436
S'44478017'
p4437
aS'44478017'
p4438
aa(lp4439
S'44517035'
p4440
aS'44507082'
p4441
aa(lp4442
S'44690769'
p4443
aS'44673848'
p4444
aa(lp4445
S'44729853'
p4446
aS'44724152'
p4447
aa(lp4448
S'44772382'
p4449
aS'44766512'
p4450
aa(lp4451
S'44821436'
p4452
aS'44806269'
p4453
aa(lp4454
S'44821436'
p4455
aS'44806269'
p4456
aa(lp4457
S'45244521'
p4458
aS'45236877'
p4459
aa(lp4460
S'45244826'
p4461
aS'45237378'
p4462
aa(lp4463
S'45311476'
p4464
aS'45311476'
p4465
aa(lp4466
S'45317624'
p4467
aS'45313344'
p4468
aa(lp4469
S'45330529'
p4470
aS'45328218'
p4471
aa(lp4472
S'46012339'
p4473
aS'46012339'
p4474
aa(lp4475
S'46042029'
p4476
aS'46019963'
p4477
aa(lp4478
S'46125342'
p4479
aS'46124205'
p4480
aa(lp4481
S'46131404'
p4482
aS'46127708'
p4483
aa(lp4484
S'46409725'
p4485
aS'46406077'
p4486
aa(lp4487
S'46459231'
p4488
aS'46457829'
p4489
aa(lp4490
S'46473134'
p4491
aS'46471999'
p4492
aa(lp4493
S'46473134'
p4494
aS'46471999'
p4495
aa(lp4496
S'46473136'
p4497
aS'46471999'
p4498
aa(lp4499
S'46473136'
p4500
aS'46471999'
p4501
aa(lp4502
S'46478020'
p4503
aS'46476079'
p4504
aa(lp4505
S'46518686'
p4506
aS'46518212'
p4507
aa(lp4508
S'48103180'
p4509
aS'48094373'
p4510
aa(lp4511
S'51778226'
p4512
aS'51641660'
p4513
aa(lp4514
S'57061751'
p4515
aS'57042891'
p4516
aa(lp4517
S'57243171'
p4518
aS'57243171'
p4519
aa(lp4520
S'61057857'
p4521
aS'61026713'
p4522
aa(lp4523
S'61173503'
p4524
aS'61142919'
p4525
aa(lp4526
S'61330023'
p4527
aS'61303254'
p4528
aa(lp4529
S'63954406'
p4530
aS'63741318'
p4531
aa(lp4532
S'67273607'
p4533
aS'67260595'
p4534
aa(lp4535
S'67839434'
p4536
aS'67801868'
p4537
aa(lp4538
S'69255594'
p4539
aS'69255594'
p4540
aa(lp4541
S'69258728'
p4542
aS'69258728'
p4543
aa(lp4544
S'69462340'
p4545
aS'69448571'
p4546
aa(lp4547
S'70524165'
p4548
aS'70499324'
p4549
aa(lp4550
S'70538600'
p4551
aS'70528891'
p4552
aa(lp4553
S'70639110'
p4554
aS'70576921'
p4555
aa(lp4556
S'83990153'
p4557
aS'83990153'
p4558
aa(lp4559
S'83990167'
p4560
aS'83990167'
p4561
aa(lp4562
S'83990168'
p4563
aS'83990168'
p4564
aasS'chr35'
p4565
(lp4566
(lp4567
S'10310109'
p4568
aS'10285907'
p4569
aa(lp4570
S'14824830'
p4571
aS'14818511'
p4572
aa(lp4573
S'16065046'
p4574
aS'16035134'
p4575
aa(lp4576
S'19940841'
p4577
aS'19939698'
p4578
aa(lp4579
S'19972241'
p4580
aS'19948639'
p4581
aa(lp4582
S'22792441'
p4583
aS'22174404'
p4584
aa(lp4585
S'23701144'
p4586
aS'23691307'
p4587
aa(lp4588
S'28649343'
p4589
aS'28639897'
p4590
aa(lp4591
S'28681545'
p4592
aS'28672755'
p4593
aa(lp4594
S'28792518'
p4595
aS'28791164'
p4596
aasS'chr5'
p4597
(lp4598
(lp4599
S'3746606'
p4600
aS'3740195'
p4601
aa(lp4602
S'4011821'
p4603
aS'4011821'
p4604
aa(lp4605
S'15052425'
p4606
aS'15052425'
p4607
aa(lp4608
S'15057881'
p4609
aS'15057881'
p4610
aa(lp4611
S'15102732'
p4612
aS'15102732'
p4613
aa(lp4614
S'17299951'
p4615
aS'17235383'
p4616
aa(lp4617
S'17515564'
p4618
aS'17512680'
p4619
aa(lp4620
S'17836435'
p4621
aS'17831433'
p4622
aa(lp4623
S'18421430'
p4624
aS'18410482'
p4625
aa(lp4626
S'18540344'
p4627
aS'18527789'
p4628
aa(lp4629
S'18813661'
p4630
aS'18807947'
p4631
aa(lp4632
S'18829117'
p4633
aS'18822148'
p4634
aa(lp4635
S'19324378'
p4636
aS'19314626'
p4637
aa(lp4638
S'19426235'
p4639
aS'19426235'
p4640
aa(lp4641
S'19752267'
p4642
aS'19749862'
p4643
aa(lp4644
S'22347021'
p4645
aS'22333414'
p4646
aa(lp4647
S'22802738'
p4648
aS'22791200'
p4649
aa(lp4650
S'23200689'
p4651
aS'22907423'
p4652
aa(lp4653
S'23200689'
p4654
aS'22907423'
p4655
aa(lp4656
S'23200689'
p4657
aS'22919405'
p4658
aa(lp4659
S'24004351'
p4660
aS'23994064'
p4661
aa(lp4662
S'24567044'
p4663
aS'24567044'
p4664
aa(lp4665
S'24567652'
p4666
aS'24567652'
p4667
aa(lp4668
S'27307661'
p4669
aS'27193106'
p4670
aa(lp4671
S'30156590'
p4672
aS'30142420'
p4673
aa(lp4674
S'30185608'
p4675
aS'30171482'
p4676
aa(lp4677
S'31942009'
p4678
aS'31927360'
p4679
aa(lp4680
S'31966615'
p4681
aS'31958354'
p4682
aa(lp4683
S'32204855'
p4684
aS'32196601'
p4685
aa(lp4686
S'32320882'
p4687
aS'32303262'
p4688
aa(lp4689
S'32345790'
p4690
aS'32333893'
p4691
aa(lp4692
S'33607659'
p4693
aS'33595610'
p4694
aa(lp4695
S'33818440'
p4696
aS'33815141'
p4697
aa(lp4698
S'33995600'
p4699
aS'33995600'
p4700
aa(lp4701
S'34679655'
p4702
aS'34679119'
p4703
aa(lp4704
S'35041930'
p4705
aS'35041930'
p4706
aa(lp4707
S'35042244'
p4708
aS'35042244'
p4709
aa(lp4710
S'35188930'
p4711
aS'35188930'
p4712
aa(lp4713
S'35240612'
p4714
aS'35234877'
p4715
aa(lp4716
S'35387089'
p4717
aS'35382902'
p4718
aa(lp4719
S'35476881'
p4720
aS'35469355'
p4721
aa(lp4722
S'35480550'
p4723
aS'35478507'
p4724
aa(lp4725
S'35496414'
p4726
aS'35491364'
p4727
aa(lp4728
S'35560761'
p4729
aS'35557005'
p4730
aa(lp4731
S'35710702'
p4732
aS'35710702'
p4733
aa(lp4734
S'35853510'
p4735
aS'35838740'
p4736
aa(lp4737
S'36152544'
p4738
aS'36146460'
p4739
aa(lp4740
S'37324175'
p4741
aS'37317324'
p4742
aa(lp4743
S'37717158'
p4744
aS'37690077'
p4745
aa(lp4746
S'37760660'
p4747
aS'37737037'
p4748
aa(lp4749
S'37799628'
p4750
aS'37775053'
p4751
aa(lp4752
S'37829610'
p4753
aS'37804508'
p4754
aa(lp4755
S'37930194'
p4756
aS'37908501'
p4757
aa(lp4758
S'42098245'
p4759
aS'42080070'
p4760
aa(lp4761
S'42908791'
p4762
aS'42885002'
p4763
aa(lp4764
S'43474545'
p4765
aS'43468240'
p4766
aa(lp4767
S'44262046'
p4768
aS'44262046'
p4769
aa(lp4770
S'44684053'
p4771
aS'44684053'
p4772
aa(lp4773
S'44685553'
p4774
aS'44662652'
p4775
aa(lp4776
S'45196434'
p4777
aS'45182072'
p4778
aa(lp4779
S'45861308'
p4780
aS'45859560'
p4781
aa(lp4782
S'45891418'
p4783
aS'45891418'
p4784
aa(lp4785
S'46262056'
p4786
aS'46199511'
p4787
aa(lp4788
S'47755068'
p4789
aS'47690110'
p4790
aa(lp4791
S'47878437'
p4792
aS'47865638'
p4793
aa(lp4794
S'47879114'
p4795
aS'47865638'
p4796
aa(lp4797
S'48186792'
p4798
aS'48186792'
p4799
aa(lp4800
S'48410535'
p4801
aS'48363160'
p4802
aa(lp4803
S'57513435'
p4804
aS'57502644'
p4805
aa(lp4806
S'58060905'
p4807
aS'58060202'
p4808
aa(lp4809
S'58100402'
p4810
aS'58084442'
p4811
aa(lp4812
S'58826756'
p4813
aS'58784139'
p4814
aa(lp4815
S'59369672'
p4816
aS'59369672'
p4817
aa(lp4818
S'59370345'
p4819
aS'59370345'
p4820
aa(lp4821
S'59371786'
p4822
aS'59371786'
p4823
aa(lp4824
S'59398658'
p4825
aS'59396105'
p4826
aa(lp4827
S'59424313'
p4828
aS'59422902'
p4829
aa(lp4830
S'59507879'
p4831
aS'59504715'
p4832
aa(lp4833
S'59651089'
p4834
aS'59622155'
p4835
aa(lp4836
S'59818298'
p4837
aS'59780861'
p4838
aa(lp4839
S'60398397'
p4840
aS'60398397'
p4841
aa(lp4842
S'60419268'
p4843
aS'60414467'
p4844
aa(lp4845
S'61113738'
p4846
aS'61113738'
p4847
aa(lp4848
S'62935638'
p4849
aS'62820169'
p4850
aa(lp4851
S'64431993'
p4852
aS'64431295'
p4853
aa(lp4854
S'65378480'
p4855
aS'65357120'
p4856
aa(lp4857
S'65484471'
p4858
aS'65484471'
p4859
aa(lp4860
S'66693351'
p4861
aS'66692397'
p4862
aa(lp4863
S'67559268'
p4864
aS'67531292'
p4865
aa(lp4866
S'67698054'
p4867
aS'67689862'
p4868
aa(lp4869
S'68341923'
p4870
aS'68311531'
p4871
aa(lp4872
S'78447629'
p4873
aS'78318268'
p4874
aa(lp4875
S'78512666'
p4876
aS'78509358'
p4877
aa(lp4878
S'80346747'
p4879
aS'80345045'
p4880
aa(lp4881
S'82820573'
p4882
aS'82820573'
p4883
aa(lp4884
S'82933091'
p4885
aS'82814556'
p4886
aa(lp4887
S'83324576'
p4888
aS'83323111'
p4889
aa(lp4890
S'83842784'
p4891
aS'83767014'
p4892
aa(lp4893
S'84288514'
p4894
aS'84279154'
p4895
aa(lp4896
S'84563234'
p4897
aS'84541301'
p4898
aa(lp4899
S'85174117'
p4900
aS'85174117'
p4901
aa(lp4902
S'85208679'
p4903
aS'85204147'
p4904
aa(lp4905
S'85716970'
p4906
aS'85704760'
p4907
aa(lp4908
S'85734365'
p4909
aS'85717448'
p4910
aasS'chr4'
p4911
(lp4912
(lp4913
S'6564997'
p4914
aS'6547577'
p4915
aa(lp4916
S'7422316'
p4917
aS'7421740'
p4918
aa(lp4919
S'11702325'
p4920
aS'11702325'
p4921
aa(lp4922
S'18386078'
p4923
aS'18386078'
p4924
aa(lp4925
S'23736838'
p4926
aS'23724516'
p4927
aa(lp4928
S'24709818'
p4929
aS'24707281'
p4930
aa(lp4931
S'27374791'
p4932
aS'27369426'
p4933
aa(lp4934
S'27544509'
p4935
aS'27540113'
p4936
aa(lp4937
S'27750848'
p4938
aS'27734273'
p4939
aa(lp4940
S'30548254'
p4941
aS'30054970'
p4942
aa(lp4943
S'31103176'
p4944
aS'31096953'
p4945
aa(lp4946
S'31103176'
p4947
aS'31096953'
p4948
aa(lp4949
S'31103176'
p4950
aS'31096953'
p4951
aa(lp4952
S'31103176'
p4953
aS'31096953'
p4954
aa(lp4955
S'31103176'
p4956
aS'31096953'
p4957
aa(lp4958
S'31103176'
p4959
aS'31096953'
p4960
aa(lp4961
S'37263663'
p4962
aS'37263663'
p4963
aa(lp4964
S'37770882'
p4965
aS'37737051'
p4966
aa(lp4967
S'39214922'
p4968
aS'39194282'
p4969
aa(lp4970
S'40143945'
p4971
aS'40143945'
p4972
aa(lp4973
S'40578000'
p4974
aS'40576920'
p4975
aa(lp4976
S'41199426'
p4977
aS'41194742'
p4978
aa(lp4979
S'42439205'
p4980
aS'42436075'
p4981
aa(lp4982
S'42601425'
p4983
aS'42577303'
p4984
aa(lp4985
S'43965146'
p4986
aS'43951753'
p4987
aa(lp4988
S'44744170'
p4989
aS'44738415'
p4990
aa(lp4991
S'46208982'
p4992
aS'46208982'
p4993
aa(lp4994
S'46381081'
p4995
aS'46381081'
p4996
aa(lp4997
S'53451793'
p4998
aS'53451793'
p4999
aa(lp5000
S'53677240'
p5001
aS'53677240'
p5002
aa(lp5003
S'53927735'
p5004
aS'53879990'
p5005
aa(lp5006
S'54396284'
p5007
aS'54386266'
p5008
aa(lp5009
S'56206992'
p5010
aS'56205924'
p5011
aa(lp5012
S'56234965'
p5013
aS'56221919'
p5014
aa(lp5015
S'56266985'
p5016
aS'56249952'
p5017
aa(lp5018
S'60812281'
p5019
aS'60803440'
p5020
aa(lp5021
S'61412303'
p5022
aS'61404814'
p5023
aa(lp5024
S'61871339'
p5025
aS'61867088'
p5026
aa(lp5027
S'61871339'
p5028
aS'61867088'
p5029
aa(lp5030
S'61942067'
p5031
aS'61903591'
p5032
aa(lp5033
S'61996932'
p5034
aS'61991530'
p5035
aa(lp5036
S'62165819'
p5037
aS'62145933'
p5038
aa(lp5039
S'62367393'
p5040
aS'62307597'
p5041
aa(lp5042
S'62479942'
p5043
aS'62479942'
p5044
aa(lp5045
S'62736791'
p5046
aS'62736791'
p5047
aa(lp5048
S'62738170'
p5049
aS'62738170'
p5050
aa(lp5051
S'63254084'
p5052
aS'63252687'
p5053
aa(lp5054
S'69797109'
p5055
aS'69766937'
p5056
aa(lp5057
S'70163242'
p5058
aS'70155484'
p5059
aa(lp5060
S'70362105'
p5061
aS'70222485'
p5062
aa(lp5063
S'71756316'
p5064
aS'71753767'
p5065
aa(lp5066
S'71874299'
p5067
aS'71862757'
p5068
aa(lp5069
S'73573692'
p5070
aS'73526527'
p5071
aa(lp5072
S'75211061'
p5073
aS'75135096'
p5074
aa(lp5075
S'77063131'
p5076
aS'77035826'
p5077
aa(lp5078
S'78985917'
p5079
aS'78985917'
p5080
aa(lp5081
S'90130155'
p5082
aS'90045456'
p5083
aa(lp5084
S'90152747'
p5085
aS'90139057'
p5086
aasS'chr3'
p5087
(lp5088
(lp5089
S'3131416'
p5090
aS'3126378'
p5091
aa(lp5092
S'6181303'
p5093
aS'5753247'
p5094
aa(lp5095
S'16909675'
p5096
aS'16875155'
p5097
aa(lp5098
S'22881893'
p5099
aS'22881893'
p5100
aa(lp5101
S'28909762'
p5102
aS'28894170'
p5103
aa(lp5104
S'30917513'
p5105
aS'30752753'
p5106
aa(lp5107
S'31635611'
p5108
aS'31369626'
p5109
aa(lp5110
S'32697471'
p5111
aS'32688583'
p5112
aa(lp5113
S'35530504'
p5114
aS'35530504'
p5115
aa(lp5116
S'40737678'
p5117
aS'40737678'
p5118
aa(lp5119
S'41935267'
p5120
aS'41853067'
p5121
aa(lp5122
S'42663177'
p5123
aS'42654233'
p5124
aa(lp5125
S'50518335'
p5126
aS'50456618'
p5127
aa(lp5128
S'54664026'
p5129
aS'54664026'
p5130
aa(lp5131
S'54892906'
p5132
aS'54856476'
p5133
aa(lp5134
S'55272282'
p5135
aS'55272282'
p5136
aa(lp5137
S'55387088'
p5138
aS'55365205'
p5139
aa(lp5140
S'55640354'
p5141
aS'55625710'
p5142
aa(lp5143
S'55726099'
p5144
aS'55668366'
p5145
aa(lp5146
S'55741601'
p5147
aS'55732070'
p5148
aa(lp5149
S'56841062'
p5150
aS'56801838'
p5151
aa(lp5152
S'57265921'
p5153
aS'57263246'
p5154
aa(lp5155
S'57442552'
p5156
aS'57442552'
p5157
aa(lp5158
S'57520667'
p5159
aS'57520667'
p5160
aa(lp5161
S'60777070'
p5162
aS'60777070'
p5163
aa(lp5164
S'61249611'
p5165
aS'61249611'
p5166
aa(lp5167
S'62686311'
p5168
aS'62686311'
p5169
aa(lp5170
S'63056509'
p5171
aS'63032040'
p5172
aa(lp5173
S'63735023'
p5174
aS'63726860'
p5175
aa(lp5176
S'67188069'
p5177
aS'67086836'
p5178
aa(lp5179
S'67403685'
p5180
aS'67356560'
p5181
aa(lp5182
S'71951435'
p5183
aS'71947610'
p5184
aa(lp5185
S'72176478'
p5186
aS'72134263'
p5187
aa(lp5188
S'72416757'
p5189
aS'72227657'
p5190
aa(lp5191
S'74959371'
p5192
aS'74949371'
p5193
aa(lp5194
S'75499082'
p5195
aS'75348544'
p5196
aa(lp5197
S'76319773'
p5198
aS'76319773'
p5199
aa(lp5200
S'76370278'
p5201
aS'76367908'
p5202
aa(lp5203
S'76396398'
p5204
aS'76393974'
p5205
aa(lp5206
S'86666926'
p5207
aS'86665504'
p5208
aa(lp5209
S'86840170'
p5210
aS'86831803'
p5211
aa(lp5212
S'87315834'
p5213
aS'87303545'
p5214
aa(lp5215
S'91870856'
p5216
aS'91870856'
p5217
aa(lp5218
S'94284327'
p5219
aS'94267672'
p5220
aa(lp5221
S'94368182'
p5222
aS'94356054'
p5223
aa(lp5224
S'94601412'
p5225
aS'94573286'
p5226
aa(lp5227
S'94713116'
p5228
aS'94713116'
p5229
aasS'chr2'
p5230
(lp5231
(lp5232
S'4804358'
p5233
aS'4754499'
p5234
aa(lp5235
S'7218951'
p5236
aS'7218951'
p5237
aa(lp5238
S'7218951'
p5239
aS'7218951'
p5240
aa(lp5241
S'7602297'
p5242
aS'7602297'
p5243
aa(lp5244
S'7602297'
p5245
aS'7602297'
p5246
aa(lp5247
S'10341871'
p5248
aS'10256685'
p5249
aa(lp5250
S'13717740'
p5251
aS'13709451'
p5252
aa(lp5253
S'13722880'
p5254
aS'13719274'
p5255
aa(lp5256
S'21220040'
p5257
aS'21220040'
p5258
aa(lp5259
S'22215972'
p5260
aS'22195411'
p5261
aa(lp5262
S'22215972'
p5263
aS'22215972'
p5264
aa(lp5265
S'22450843'
p5266
aS'22316880'
p5267
aa(lp5268
S'22514262'
p5269
aS'22506534'
p5270
aa(lp5271
S'22876740'
p5272
aS'22619092'
p5273
aa(lp5274
S'26015182'
p5275
aS'25986737'
p5276
aa(lp5277
S'26044727'
p5278
aS'26024102'
p5279
aa(lp5280
S'26091497'
p5281
aS'26073818'
p5282
aa(lp5283
S'32788069'
p5284
aS'32737611'
p5285
aa(lp5286
S'33011385'
p5287
aS'32993196'
p5288
aa(lp5289
S'33532409'
p5290
aS'33516957'
p5291
aa(lp5292
S'37556643'
p5293
aS'37548554'
p5294
aa(lp5295
S'38369479'
p5296
aS'38304521'
p5297
aa(lp5298
S'38586987'
p5299
aS'38468252'
p5300
aa(lp5301
S'38594490'
p5302
aS'38592608'
p5303
aa(lp5304
S'41087661'
p5305
aS'40977447'
p5306
aa(lp5307
S'45214042'
p5308
aS'45133967'
p5309
aa(lp5310
S'45385717'
p5311
aS'45380749'
p5312
aa(lp5313
S'45390444'
p5314
aS'45390444'
p5315
aa(lp5316
S'45390582'
p5317
aS'45390582'
p5318
aa(lp5319
S'46110720'
p5320
aS'46068874'
p5321
aa(lp5322
S'46571553'
p5323
aS'46571029'
p5324
aa(lp5325
S'49362341'
p5326
aS'49362341'
p5327
aa(lp5328
S'52877323'
p5329
aS'52876051'
p5330
aa(lp5331
S'57279889'
p5332
aS'57277078'
p5333
aa(lp5334
S'57279904'
p5335
aS'57263729'
p5336
aa(lp5337
S'57418462'
p5338
aS'57373400'
p5339
aa(lp5340
S'57509747'
p5341
aS'57481898'
p5342
aa(lp5343
S'59214795'
p5344
aS'59211026'
p5345
aa(lp5346
S'60279416'
p5347
aS'60279416'
p5348
aa(lp5349
S'60874134'
p5350
aS'60848869'
p5351
aa(lp5352
S'61519006'
p5353
aS'61457069'
p5354
aa(lp5355
S'61883900'
p5356
aS'61881553'
p5357
aa(lp5358
S'61912019'
p5359
aS'61902839'
p5360
aa(lp5361
S'62334228'
p5362
aS'62334228'
p5363
aa(lp5364
S'62484199'
p5365
aS'62483247'
p5366
aa(lp5367
S'62488902'
p5368
aS'62488177'
p5369
aa(lp5370
S'62523438'
p5371
aS'62521043'
p5372
aa(lp5373
S'63145399'
p5374
aS'63116212'
p5375
aa(lp5376
S'63186003'
p5377
aS'63156759'
p5378
aa(lp5379
S'63242565'
p5380
aS'63199336'
p5381
aa(lp5382
S'67552532'
p5383
aS'67523465'
p5384
aa(lp5385
S'71214024'
p5386
aS'71179214'
p5387
aa(lp5388
S'74475019'
p5389
aS'74367326'
p5390
aa(lp5391
S'74788988'
p5392
aS'74772089'
p5393
aa(lp5394
S'74855106'
p5395
aS'74840299'
p5396
aa(lp5397
S'74866717'
p5398
aS'74866717'
p5399
aa(lp5400
S'75147068'
p5401
aS'75145084'
p5402
aa(lp5403
S'75993133'
p5404
aS'75945314'
p5405
aa(lp5406
S'76474302'
p5407
aS'76471363'
p5408
aa(lp5409
S'76592562'
p5410
aS'76591175'
p5411
aa(lp5412
S'77349517'
p5413
aS'77290167'
p5414
aa(lp5415
S'77394841'
p5416
aS'77358378'
p5417
aa(lp5418
S'78552773'
p5419
aS'78551690'
p5420
aa(lp5421
S'78569734'
p5422
aS'78558134'
p5423
aa(lp5424
S'78678176'
p5425
aS'78673820'
p5426
aa(lp5427
S'78678176'
p5428
aS'78673820'
p5429
aa(lp5430
S'78774339'
p5431
aS'78773274'
p5432
aa(lp5433
S'78943177'
p5434
aS'78943177'
p5435
aa(lp5436
S'79092465'
p5437
aS'79091197'
p5438
aa(lp5439
S'80061916'
p5440
aS'80045251'
p5441
aa(lp5442
S'80468819'
p5443
aS'80454880'
p5444
aa(lp5445
S'81169563'
p5446
aS'81162313'
p5447
aa(lp5448
S'82632671'
p5449
aS'82613795'
p5450
aa(lp5451
S'83804180'
p5452
aS'83785551'
p5453
aa(lp5454
S'84086379'
p5455
aS'84054671'
p5456
aa(lp5457
S'84951816'
p5458
aS'84932267'
p5459
aa(lp5460
S'86479288'
p5461
aS'86451797'
p5462
aa(lp5463
S'86824677'
p5464
aS'86824677'
p5465
aa(lp5466
S'87156600'
p5467
aS'87151165'
p5468
aa(lp5469
S'87190038'
p5470
aS'87166860'
p5471
aa(lp5472
S'87225375'
p5473
aS'87202565'
p5474
aa(lp5475
S'87292054'
p5476
aS'87290430'
p5477
aa(lp5478
S'87356309'
p5479
aS'87356309'
p5480
aa(lp5481
S'88372550'
p5482
aS'88363460'
p5483
aasS'chr1'
p5484
(lp5485
(lp5486
S'8108427'
p5487
aS'8072715'
p5488
aa(lp5489
S'16909853'
p5490
aS'16743703'
p5491
aa(lp5492
S'17677005'
p5493
aS'17677005'
p5494
aa(lp5495
S'18244206'
p5496
aS'18193818'
p5497
aa(lp5498
S'19141842'
p5499
aS'19140843'
p5500
aa(lp5501
S'19481925'
p5502
aS'19478808'
p5503
aa(lp5504
S'20044726'
p5505
aS'20029215'
p5506
aa(lp5507
S'20601613'
p5508
aS'20601613'
p5509
aa(lp5510
S'23423773'
p5511
aS'23071961'
p5512
aa(lp5513
S'28736967'
p5514
aS'28715076'
p5515
aa(lp5516
S'29975894'
p5517
aS'29967282'
p5518
aa(lp5519
S'39263723'
p5520
aS'38777103'
p5521
aa(lp5522
S'43383523'
p5523
aS'43339443'
p5524
aa(lp5525
S'43502447'
p5526
aS'43484015'
p5527
aa(lp5528
S'45414049'
p5529
aS'45129692'
p5530
aa(lp5531
S'47082698'
p5532
aS'47018135'
p5533
aa(lp5534
S'47489756'
p5535
aS'47489756'
p5536
aa(lp5537
S'48231143'
p5538
aS'48173744'
p5539
aa(lp5540
S'51252419'
p5541
aS'51203784'
p5542
aa(lp5543
S'52073038'
p5544
aS'52073038'
p5545
aa(lp5546
S'52147589'
p5547
aS'52146609'
p5548
aa(lp5549
S'52304596'
p5550
aS'52204020'
p5551
aa(lp5552
S'52392927'
p5553
aS'52372112'
p5554
aa(lp5555
S'52579744'
p5556
aS'52541977'
p5557
aa(lp5558
S'55000869'
p5559
aS'54844286'
p5560
aa(lp5561
S'57237728'
p5562
aS'57228891'
p5563
aa(lp5564
S'59035843'
p5565
aS'58876267'
p5566
aa(lp5567
S'59479766'
p5568
aS'59452710'
p5569
aa(lp5570
S'61643805'
p5571
aS'61641373'
p5572
aa(lp5573
S'63997854'
p5574
aS'63994947'
p5575
aa(lp5576
S'65817865'
p5577
aS'65458064'
p5578
aa(lp5579
S'71316975'
p5580
aS'71199649'
p5581
aa(lp5582
S'74734290'
p5583
aS'74734290'
p5584
aa(lp5585
S'74734800'
p5586
aS'74734800'
p5587
aa(lp5588
S'74735027'
p5589
aS'74735027'
p5590
aa(lp5591
S'75504191'
p5592
aS'75336644'
p5593
aa(lp5594
S'78565727'
p5595
aS'78565727'
p5596
aa(lp5597
S'78567327'
p5598
aS'78557583'
p5599
aa(lp5600
S'83996931'
p5601
aS'83802460'
p5602
aa(lp5603
S'87830635'
p5604
aS'87812067'
p5605
aa(lp5606
S'88062413'
p5607
aS'88008078'
p5608
aa(lp5609
S'89887308'
p5610
aS'89887308'
p5611
aa(lp5612
S'91297764'
p5613
aS'91194053'
p5614
aa(lp5615
S'91378319'
p5616
aS'91355811'
p5617
aa(lp5618
S'92188052'
p5619
aS'92130783'
p5620
aa(lp5621
S'94338934'
p5622
aS'94308513'
p5623
aa(lp5624
S'96044599'
p5625
aS'95964618'
p5626
aa(lp5627
S'96260721'
p5628
aS'96260721'
p5629
aa(lp5630
S'96570855'
p5631
aS'96566438'
p5632
aa(lp5633
S'96669279'
p5634
aS'96655207'
p5635
aa(lp5636
S'100971041'
p5637
aS'100971041'
p5638
aa(lp5639
S'100972913'
p5640
aS'100972913'
p5641
aa(lp5642
S'101673201'
p5643
aS'101673201'
p5644
aa(lp5645
S'105363514'
p5646
aS'105359395'
p5647
aa(lp5648
S'105387851'
p5649
aS'105386661'
p5650
aa(lp5651
S'105554381'
p5652
aS'105551346'
p5653
aa(lp5654
S'105766099'
p5655
aS'105761810'
p5656
aa(lp5657
S'106166480'
p5658
aS'106149452'
p5659
aa(lp5660
S'106488193'
p5661
aS'106488193'
p5662
aa(lp5663
S'106606489'
p5664
aS'106592971'
p5665
aa(lp5666
S'106637344'
p5667
aS'106636393'
p5668
aa(lp5669
S'107666130'
p5670
aS'107666130'
p5671
aa(lp5672
S'108280449'
p5673
aS'108280449'
p5674
aa(lp5675
S'108280923'
p5676
aS'108280923'
p5677
aa(lp5678
S'108281101'
p5679
aS'108281101'
p5680
aa(lp5681
S'108696178'
p5682
aS'108691797'
p5683
aa(lp5684
S'108743780'
p5685
aS'108740501'
p5686
aa(lp5687
S'108752689'
p5688
aS'108747688'
p5689
aa(lp5690
S'108760279'
p5691
aS'108754819'
p5692
aa(lp5693
S'108760279'
p5694
aS'108754819'
p5695
aa(lp5696
S'108774343'
p5697
aS'108771219'
p5698
aa(lp5699
S'108789385'
p5700
aS'108781688'
p5701
aa(lp5702
S'108804096'
p5703
aS'108796270'
p5704
aa(lp5705
S'108836975'
p5706
aS'108833501'
p5707
aa(lp5708
S'108866361'
p5709
aS'108863167'
p5710
aa(lp5711
S'108910255'
p5712
aS'108891052'
p5713
aa(lp5714
S'109886444'
p5715
aS'109886444'
p5716
aa(lp5717
S'109890689'
p5718
aS'109887976'
p5719
aa(lp5720
S'109901899'
p5721
aS'109898325'
p5722
aa(lp5723
S'109912340'
p5724
aS'109902870'
p5725
aa(lp5726
S'110009267'
p5727
aS'110009267'
p5728
aa(lp5729
S'110264451'
p5730
aS'110258688'
p5731
aa(lp5732
S'110271493'
p5733
aS'110270318'
p5734
aa(lp5735
S'110307378'
p5736
aS'110306077'
p5737
aa(lp5738
S'110313918'
p5739
aS'110312434'
p5740
aa(lp5741
S'110332522'
p5742
aS'110321816'
p5743
aa(lp5744
S'110422937'
p5745
aS'110405956'
p5746
aa(lp5747
S'110579311'
p5748
aS'110575596'
p5749
aa(lp5750
S'111073002'
p5751
aS'111047173'
p5752
aa(lp5753
S'111146901'
p5754
aS'111141875'
p5755
aa(lp5756
S'111175440'
p5757
aS'111173356'
p5758
aa(lp5759
S'111561146'
p5760
aS'111546300'
p5761
aa(lp5762
S'111919920'
p5763
aS'111839188'
p5764
aa(lp5765
S'112047014'
p5766
aS'112036179'
p5767
aa(lp5768
S'112507709'
p5769
aS'112507709'
p5770
aa(lp5771
S'112788031'
p5772
aS'112782579'
p5773
aa(lp5774
S'112813545'
p5775
aS'112813545'
p5776
aa(lp5777
S'112954090'
p5778
aS'112942226'
p5779
aa(lp5780
S'112984081'
p5781
aS'112979948'
p5782
aa(lp5783
S'113110146'
p5784
aS'113103645'
p5785
aa(lp5786
S'113396358'
p5787
aS'113395947'
p5788
aa(lp5789
S'113412850'
p5790
aS'113410603'
p5791
aa(lp5792
S'113551474'
p5793
aS'113543723'
p5794
aa(lp5795
S'114337511'
p5796
aS'114334450'
p5797
aa(lp5798
S'114463937'
p5799
aS'114441005'
p5800
aa(lp5801
S'114620572'
p5802
aS'114604307'
p5803
aa(lp5804
S'114648111'
p5805
aS'114637541'
p5806
aa(lp5807
S'114672522'
p5808
aS'114661610'
p5809
aa(lp5810
S'114726760'
p5811
aS'114704781'
p5812
aa(lp5813
S'114726772'
p5814
aS'114704781'
p5815
aa(lp5816
S'114809492'
p5817
aS'114794579'
p5818
aa(lp5819
S'115222057'
p5820
aS'115174266'
p5821
aa(lp5822
S'115254103'
p5823
aS'115251582'
p5824
aa(lp5825
S'115323350'
p5826
aS'115320051'
p5827
aa(lp5828
S'115374164'
p5829
aS'115366835'
p5830
aa(lp5831
S'115552350'
p5832
aS'115538185'
p5833
aa(lp5834
S'115741796'
p5835
aS'115726066'
p5836
aa(lp5837
S'115815247'
p5838
aS'115809009'
p5839
aa(lp5840
S'115846750'
p5841
aS'115840747'
p5842
aa(lp5843
S'115920510'
p5844
aS'115915518'
p5845
aa(lp5846
S'115940001'
p5847
aS'115940001'
p5848
aa(lp5849
S'116315357'
p5850
aS'116297439'
p5851
aa(lp5852
S'116402388'
p5853
aS'116401478'
p5854
aa(lp5855
S'117210647'
p5856
aS'117202904'
p5857
aa(lp5858
S'117637436'
p5859
aS'117609401'
p5860
aa(lp5861
S'119669486'
p5862
aS'119666404'
p5863
aa(lp5864
S'119751737'
p5865
aS'119740831'
p5866
aa(lp5867
S'119797625'
p5868
aS'119796472'
p5869
aa(lp5870
S'120025391'
p5871
aS'120013212'
p5872
aa(lp5873
S'120078977'
p5874
aS'120075807'
p5875
aa(lp5876
S'120215104'
p5877
aS'120214048'
p5878
aa(lp5879
S'120349031'
p5880
aS'120344958'
p5881
aa(lp5882
S'120349031'
p5883
aS'120344958'
p5884
aa(lp5885
S'120419113'
p5886
aS'120412999'
p5887
aa(lp5888
S'122031890'
p5889
aS'121974074'
p5890
aa(lp5891
S'122141419'
p5892
aS'122118887'
p5893
aa(lp5894
S'125350568'
p5895
aS'125350568'
p5896
aasS'chr34'
p5897
(lp5898
(lp5899
S'3112839'
p5900
aS'3111237'
p5901
aa(lp5902
S'7543117'
p5903
aS'7542223'
p5904
aa(lp5905
S'10147926'
p5906
aS'10123615'
p5907
aa(lp5908
S'14251082'
p5909
aS'14216561'
p5910
aa(lp5911
S'14312664'
p5912
aS'14294294'
p5913
aa(lp5914
S'14545008'
p5915
aS'14529422'
p5916
aa(lp5917
S'15379077'
p5918
aS'15379077'
p5919
aa(lp5920
S'19950477'
p5921
aS'19865550'
p5922
aa(lp5923
S'20087958'
p5924
aS'20080939'
p5925
aa(lp5926
S'22171852'
p5927
aS'22165713'
p5928
aa(lp5929
S'22416809'
p5930
aS'22414989'
p5931
aa(lp5932
S'23072894'
p5933
aS'23071617'
p5934
aa(lp5935
S'23133055'
p5936
aS'23121748'
p5937
aa(lp5938
S'23981871'
p5939
aS'23981871'
p5940
aa(lp5941
S'29142272'
p5942
aS'29134783'
p5943
aa(lp5944
S'29469968'
p5945
aS'29469968'
p5946
aa(lp5947
S'29470117'
p5948
aS'29470117'
p5949
aa(lp5950
S'33985226'
p5951
aS'33920644'
p5952
aa(lp5953
S'36298308'
p5954
aS'36298308'
p5955
aa(lp5956
S'39700712'
p5957
aS'39697541'
p5958
aa(lp5959
S'39741399'
p5960
aS'39725658'
p5961
aasS'chr37'
p5962
(lp5963
(lp5964
S'3435160'
p5965
aS'3430584'
p5966
aa(lp5967
S'3734286'
p5968
aS'3729202'
p5969
aa(lp5970
S'12901195'
p5971
aS'12837981'
p5972
aa(lp5973
S'12992220'
p5974
aS'12913713'
p5975
aa(lp5976
S'13401705'
p5977
aS'13390938'
p5978
aa(lp5979
S'14229590'
p5980
aS'14200873'
p5981
aa(lp5982
S'15532665'
p5983
aS'15503788'
p5984
aa(lp5985
S'15653685'
p5986
aS'15647581'
p5987
aa(lp5988
S'15733269'
p5989
aS'15712690'
p5990
aa(lp5991
S'19433182'
p5992
aS'19424649'
p5993
aa(lp5994
S'19433266'
p5995
aS'19431547'
p5996
aa(lp5997
S'19442526'
p5998
aS'19440571'
p5999
aa(lp6000
S'19455248'
p6001
aS'19453446'
p6002
aa(lp6003
S'26066934'
p6004
aS'26038088'
p6005
aa(lp6006
S'27844091'
p6007
aS'27842720'
p6008
aa(lp6009
S'27948045'
p6010
aS'27943591'
p6011
aa(lp6012
S'28046993'
p6013
aS'28038734'
p6014
aa(lp6015
S'28054075'
p6016
aS'28054075'
p6017
aa(lp6018
S'28186026'
p6019
aS'28094892'
p6020
aa(lp6021
S'28567635'
p6022
aS'28567635'
p6023
aa(lp6024
S'28734363'
p6025
aS'28734363'
p6026
aa(lp6027
S'28939546'
p6028
aS'28933164'
p6029
aa(lp6030
S'29005351'
p6031
aS'28947554'
p6032
aa(lp6033
S'29151198'
p6034
aS'29138071'
p6035
aa(lp6036
S'29151198'
p6037
aS'29138071'
p6038
aa(lp6039
S'29151198'
p6040
aS'29141395'
p6041
aa(lp6042
S'33321938'
p6043
aS'33321938'
p6044
aa(lp6045
S'33897019'
p6046
aS'33886412'
p6047
aasS'chr9'
p6048
(lp6049
(lp6050
S'3501459'
p6051
aS'3487735'
p6052
aa(lp6053
S'3501459'
p6054
aS'3487735'
p6055
aa(lp6056
S'3517598'
p6057
aS'3516198'
p6058
aa(lp6059
S'3627602'
p6060
aS'3625258'
p6061
aa(lp6062
S'3907887'
p6063
aS'3907887'
p6064
aa(lp6065
S'4536122'
p6066
aS'4530025'
p6067
aa(lp6068
S'5531215'
p6069
aS'5519215'
p6070
aa(lp6071
S'5857266'
p6072
aS'5856588'
p6073
aa(lp6074
S'5932654'
p6075
aS'5927644'
p6076
aa(lp6077
S'5973959'
p6078
aS'5970667'
p6079
aa(lp6080
S'6774787'
p6081
aS'6774787'
p6082
aa(lp6083
S'7121911'
p6084
aS'7099111'
p6085
aa(lp6086
S'7163101'
p6087
aS'7152731'
p6088
aa(lp6089
S'7186824'
p6090
aS'7184244'
p6091
aa(lp6092
S'7198202'
p6093
aS'7189342'
p6094
aa(lp6095
S'7235821'
p6096
aS'7227497'
p6097
aa(lp6098
S'7238745'
p6099
aS'7237321'
p6100
aa(lp6101
S'7376818'
p6102
aS'7376818'
p6103
aa(lp6104
S'7556569'
p6105
aS'7553268'
p6106
aa(lp6107
S'7602199'
p6108
aS'7565603'
p6109
aa(lp6110
S'7799023'
p6111
aS'7766780'
p6112
aa(lp6113
S'7822625'
p6114
aS'7816356'
p6115
aa(lp6116
S'8308682'
p6117
aS'8295978'
p6118
aa(lp6119
S'8337203'
p6120
aS'8319289'
p6121
aa(lp6122
S'8678579'
p6123
aS'8661517'
p6124
aa(lp6125
S'10001436'
p6126
aS'10000326'
p6127
aa(lp6128
S'11351665'
p6129
aS'11348541'
p6130
aa(lp6131
S'12309052'
p6132
aS'12260586'
p6133
aa(lp6134
S'12507716'
p6135
aS'12507716'
p6136
aa(lp6137
S'12696435'
p6138
aS'12650428'
p6139
aa(lp6140
S'13367072'
p6141
aS'13367072'
p6142
aa(lp6143
S'13367072'
p6144
aS'13367072'
p6145
aa(lp6146
S'14959860'
p6147
aS'14958101'
p6148
aa(lp6149
S'15435465'
p6150
aS'15428810'
p6151
aa(lp6152
S'15435733'
p6153
aS'15428810'
p6154
aa(lp6155
S'17224083'
p6156
aS'17211557'
p6157
aa(lp6158
S'18243128'
p6159
aS'18177870'
p6160
aa(lp6161
S'19571430'
p6162
aS'19566107'
p6163
aa(lp6164
S'19605200'
p6165
aS'19603916'
p6166
aa(lp6167
S'22003674'
p6168
aS'22002483'
p6169
aa(lp6170
S'22382025'
p6171
aS'22368180'
p6172
aa(lp6173
S'22475193'
p6174
aS'22463820'
p6175
aa(lp6176
S'22714397'
p6177
aS'22713643'
p6178
aa(lp6179
S'23342346'
p6180
aS'23278874'
p6181
aa(lp6182
S'23384764'
p6183
aS'23381415'
p6184
aa(lp6185
S'23461491'
p6186
aS'23452250'
p6187
aa(lp6188
S'23542027'
p6189
aS'23540957'
p6190
aa(lp6191
S'23680875'
p6192
aS'23676306'
p6193
aa(lp6194
S'24049105'
p6195
aS'24047857'
p6196
aa(lp6197
S'24093258'
p6198
aS'24089240'
p6199
aa(lp6200
S'24372687'
p6201
aS'24359457'
p6202
aa(lp6203
S'24421228'
p6204
aS'24419309'
p6205
aa(lp6206
S'24514667'
p6207
aS'24510337'
p6208
aa(lp6209
S'24564646'
p6210
aS'24560384'
p6211
aa(lp6212
S'24573738'
p6213
aS'24569493'
p6214
aa(lp6215
S'24585171'
p6216
aS'24580989'
p6217
aa(lp6218
S'24719965'
p6219
aS'24713625'
p6220
aa(lp6221
S'24738034'
p6222
aS'24733060'
p6223
aa(lp6224
S'25044429'
p6225
aS'25038903'
p6226
aa(lp6227
S'25096102'
p6228
aS'25080052'
p6229
aa(lp6230
S'25158192'
p6231
aS'25152660'
p6232
aa(lp6233
S'25214068'
p6234
aS'25204914'
p6235
aa(lp6236
S'25233306'
p6237
aS'25228062'
p6238
aa(lp6239
S'25258247'
p6240
aS'25252734'
p6241
aa(lp6242
S'25275925'
p6243
aS'25268976'
p6244
aa(lp6245
S'25338406'
p6246
aS'25329371'
p6247
aa(lp6248
S'25484245'
p6249
aS'25484245'
p6250
aa(lp6251
S'25617464'
p6252
aS'25583374'
p6253
aa(lp6254
S'25821130'
p6255
aS'25800676'
p6256
aa(lp6257
S'26112970'
p6258
aS'26088706'
p6259
aa(lp6260
S'26133997'
p6261
aS'26121529'
p6262
aa(lp6263
S'26140656'
p6264
aS'26139926'
p6265
aa(lp6266
S'26503253'
p6267
aS'26499198'
p6268
aa(lp6269
S'26729670'
p6270
aS'26723868'
p6271
aa(lp6272
S'26811018'
p6273
aS'26801137'
p6274
aa(lp6275
S'27662495'
p6276
aS'27662495'
p6277
aa(lp6278
S'28168968'
p6279
aS'28168968'
p6280
aa(lp6281
S'28222491'
p6282
aS'28222491'
p6283
aa(lp6284
S'28613838'
p6285
aS'28613612'
p6286
aa(lp6287
S'28699285'
p6288
aS'28697836'
p6289
aa(lp6290
S'28862917'
p6291
aS'28852787'
p6292
aa(lp6293
S'29524308'
p6294
aS'29508457'
p6295
aa(lp6296
S'29653758'
p6297
aS'29641192'
p6298
aa(lp6299
S'30322675'
p6300
aS'30316825'
p6301
aa(lp6302
S'30329584'
p6303
aS'30326476'
p6304
aa(lp6305
S'32595816'
p6306
aS'32595011'
p6307
aa(lp6308
S'36084874'
p6309
aS'36084874'
p6310
aa(lp6311
S'36300900'
p6312
aS'36300900'
p6313
aa(lp6314
S'37036730'
p6315
aS'37036730'
p6316
aa(lp6317
S'37047124'
p6318
aS'37047124'
p6319
aa(lp6320
S'37662824'
p6321
aS'37662824'
p6322
aa(lp6323
S'37708890'
p6324
aS'37678994'
p6325
aa(lp6326
S'38513488'
p6327
aS'38487908'
p6328
aa(lp6329
S'41003095'
p6330
aS'41001745'
p6331
aa(lp6332
S'41015541'
p6333
aS'41014114'
p6334
aa(lp6335
S'41030613'
p6336
aS'41029215'
p6337
aa(lp6338
S'41144256'
p6339
aS'41137861'
p6340
aa(lp6341
S'42258454'
p6342
aS'42255813'
p6343
aa(lp6344
S'42261987'
p6345
aS'42260699'
p6346
aa(lp6347
S'42272458'
p6348
aS'42270939'
p6349
aa(lp6350
S'42317774'
p6351
aS'42316308'
p6352
aa(lp6353
S'42331603'
p6354
aS'42330180'
p6355
aa(lp6356
S'43425242'
p6357
aS'43417732'
p6358
aa(lp6359
S'43934128'
p6360
aS'43934128'
p6361
aa(lp6362
S'44628661'
p6363
aS'44628661'
p6364
aa(lp6365
S'44641995'
p6366
aS'44641995'
p6367
aa(lp6368
S'45495876'
p6369
aS'45480238'
p6370
aa(lp6371
S'45534073'
p6372
aS'45497805'
p6373
aa(lp6374
S'45932924'
p6375
aS'45924411'
p6376
aa(lp6377
S'46108229'
p6378
aS'46104804'
p6379
aa(lp6380
S'46356598'
p6381
aS'46356598'
p6382
aa(lp6383
S'46356761'
p6384
aS'46356761'
p6385
aa(lp6386
S'46703940'
p6387
aS'46697896'
p6388
aa(lp6389
S'47481006'
p6390
aS'47481006'
p6391
aa(lp6392
S'47572016'
p6393
aS'47549971'
p6394
aa(lp6395
S'49177613'
p6396
aS'49177613'
p6397
aa(lp6398
S'49227785'
p6399
aS'49220349'
p6400
aa(lp6401
S'49478598'
p6402
aS'49478598'
p6403
aa(lp6404
S'49478982'
p6405
aS'49478982'
p6406
aa(lp6407
S'50448750'
p6408
aS'50447820'
p6409
aa(lp6410
S'50611556'
p6411
aS'50610508'
p6412
aa(lp6413
S'50645101'
p6414
aS'50644159'
p6415
aa(lp6416
S'50759074'
p6417
aS'50732902'
p6418
aa(lp6419
S'51118136'
p6420
aS'51118136'
p6421
aa(lp6422
S'51847073'
p6423
aS'51823758'
p6424
aa(lp6425
S'51941796'
p6426
aS'51940728'
p6427
aa(lp6428
S'51983700'
p6429
aS'51980871'
p6430
aa(lp6431
S'52212310'
p6432
aS'52212310'
p6433
aa(lp6434
S'52586896'
p6435
aS'52581410'
p6436
aa(lp6437
S'52956966'
p6438
aS'52953353'
p6439
aa(lp6440
S'53045221'
p6441
aS'53042726'
p6442
aa(lp6443
S'53095738'
p6444
aS'53086193'
p6445
aa(lp6446
S'53123820'
p6447
aS'53121182'
p6448
aa(lp6449
S'53204933'
p6450
aS'53176853'
p6451
aa(lp6452
S'53361759'
p6453
aS'53342451'
p6454
aa(lp6455
S'54625249'
p6456
aS'54616165'
p6457
aa(lp6458
S'57426889'
p6459
aS'57416179'
p6460
aa(lp6461
S'57972870'
p6462
aS'57972870'
p6463
aa(lp6464
S'58483250'
p6465
aS'58483250'
p6466
aa(lp6467
S'58606491'
p6468
aS'58606491'
p6469
aa(lp6470
S'58642323'
p6471
aS'58596958'
p6472
aa(lp6473
S'58693036'
p6474
aS'58687594'
p6475
aa(lp6476
S'58892542'
p6477
aS'58887654'
p6478
aa(lp6479
S'59243225'
p6480
aS'59239433'
p6481
aa(lp6482
S'59273162'
p6483
aS'59266297'
p6484
aa(lp6485
S'61642251'
p6486
aS'61642251'
p6487
aa(lp6488
S'61643484'
p6489
aS'61643484'
p6490
aa(lp6491
S'61933882'
p6492
aS'61870605'
p6493
aa(lp6494
S'63558202'
p6495
aS'63537312'
p6496
aa(lp6497
S'64387362'
p6498
aS'64365533'
p6499
aasS'chr8'
p6500
(lp6501
(lp6502
S'3610555'
p6503
aS'3609595'
p6504
aa(lp6505
S'3704707'
p6506
aS'3703780'
p6507
aa(lp6508
S'6483123'
p6509
aS'6435227'
p6510
aa(lp6511
S'6574998'
p6512
aS'6573461'
p6513
aa(lp6514
S'6588638'
p6515
aS'6584492'
p6516
aa(lp6517
S'6640089'
p6518
aS'6640089'
p6519
aa(lp6520
S'6656563'
p6521
aS'6632982'
p6522
aa(lp6523
S'6668379'
p6524
aS'6668379'
p6525
aa(lp6526
S'6683371'
p6527
aS'6663297'
p6528
aa(lp6529
S'7064193'
p6530
aS'7052320'
p6531
aa(lp6532
S'7247396'
p6533
aS'7235365'
p6534
aa(lp6535
S'7446784'
p6536
aS'7444013'
p6537
aa(lp6538
S'16842126'
p6539
aS'16814294'
p6540
aa(lp6541
S'18094341'
p6542
aS'18093598'
p6543
aa(lp6544
S'19579946'
p6545
aS'19578770'
p6546
aa(lp6547
S'20367740'
p6548
aS'20360308'
p6549
aa(lp6550
S'29230782'
p6551
aS'29230782'
p6552
aa(lp6553
S'29251552'
p6554
aS'29250473'
p6555
aa(lp6556
S'29429422'
p6557
aS'29429422'
p6558
aa(lp6559
S'30313860'
p6560
aS'30270863'
p6561
aa(lp6562
S'31542138'
p6563
aS'31528555'
p6564
aa(lp6565
S'33034437'
p6566
aS'33027699'
p6567
aa(lp6568
S'34026667'
p6569
aS'34015630'
p6570
aa(lp6571
S'35879301'
p6572
aS'35879301'
p6573
aa(lp6574
S'37865013'
p6575
aS'37840735'
p6576
aa(lp6577
S'38709369'
p6578
aS'38706539'
p6579
aa(lp6580
S'39685895'
p6581
aS'39643537'
p6582
aa(lp6583
S'41982759'
p6584
aS'41980409'
p6585
aa(lp6586
S'41989446'
p6587
aS'41980409'
p6588
aa(lp6589
S'42049317'
p6590
aS'42048811'
p6591
aa(lp6592
S'42251323'
p6593
aS'42199601'
p6594
aa(lp6595
S'42355576'
p6596
aS'42352106'
p6597
aa(lp6598
S'43002383'
p6599
aS'42855211'
p6600
aa(lp6601
S'44654909'
p6602
aS'44623664'
p6603
aa(lp6604
S'47066304'
p6605
aS'47040953'
p6606
aa(lp6607
S'47113265'
p6608
aS'47079375'
p6609
aa(lp6610
S'49607067'
p6611
aS'49541792'
p6612
aa(lp6613
S'49607067'
p6614
aS'49541792'
p6615
aa(lp6616
S'50687136'
p6617
aS'50678537'
p6618
aa(lp6619
S'51202209'
p6620
aS'51193877'
p6621
aa(lp6622
S'53123336'
p6623
aS'53119224'
p6624
aa(lp6625
S'55732281'
p6626
aS'55723310'
p6627
aa(lp6628
S'56519846'
p6629
aS'56364312'
p6630
aa(lp6631
S'56860642'
p6632
aS'56860642'
p6633
aa(lp6634
S'62363862'
p6635
aS'62307485'
p6636
aa(lp6637
S'63153365'
p6638
aS'63100699'
p6639
aa(lp6640
S'64326521'
p6641
aS'64313032'
p6642
aa(lp6643
S'66438083'
p6644
aS'66428218'
p6645
aa(lp6646
S'68041932'
p6647
aS'68037239'
p6648
aa(lp6649
S'68065300'
p6650
aS'68064247'
p6651
aa(lp6652
S'71462969'
p6653
aS'71462969'
p6654
aa(lp6655
S'71630748'
p6656
aS'71630748'
p6657
aa(lp6658
S'72137145'
p6659
aS'72137145'
p6660
aa(lp6661
S'72140704'
p6662
aS'72140704'
p6663
aa(lp6664
S'72146644'
p6665
aS'72146644'
p6666
aa(lp6667
S'72147730'
p6668
aS'72147730'
p6669
aa(lp6670
S'72149234'
p6671
aS'72149234'
p6672
aa(lp6673
S'72149403'
p6674
aS'72149403'
p6675
aa(lp6676
S'72175597'
p6677
aS'72175597'
p6678
aa(lp6679
S'72296599'
p6680
aS'72296599'
p6681
aa(lp6682
S'72297884'
p6683
aS'72297884'
p6684
aa(lp6685
S'72298343'
p6686
aS'72298343'
p6687
aa(lp6688
S'72299553'
p6689
aS'72299553'
p6690
aa(lp6691
S'72300282'
p6692
aS'72300282'
p6693
aa(lp6694
S'72300595'
p6695
aS'72300595'
p6696
aa(lp6697
S'72301340'
p6698
aS'72301340'
p6699
aa(lp6700
S'72301647'
p6701
aS'72301647'
p6702
aa(lp6703
S'72304198'
p6704
aS'72304198'
p6705
aa(lp6706
S'72306196'
p6707
aS'72306196'
p6708
aa(lp6709
S'72307959'
p6710
aS'72307959'
p6711
aa(lp6712
S'72310007'
p6713
aS'72310007'
p6714
aa(lp6715
S'72312543'
p6716
aS'72312543'
p6717
aa(lp6718
S'72312917'
p6719
aS'72312917'
p6720
aa(lp6721
S'72313289'
p6722
aS'72313289'
p6723
aa(lp6724
S'72313689'
p6725
aS'72313689'
p6726
aa(lp6727
S'72314049'
p6728
aS'72314049'
p6729
aa(lp6730
S'72314625'
p6731
aS'72314625'
p6732
aa(lp6733
S'72316065'
p6734
aS'72316065'
p6735
aa(lp6736
S'72317790'
p6737
aS'72317790'
p6738
aa(lp6739
S'72318286'
p6740
aS'72318286'
p6741
aa(lp6742
S'72319119'
p6743
aS'72319119'
p6744
aa(lp6745
S'72319713'
p6746
aS'72319713'
p6747
aa(lp6748
S'72320477'
p6749
aS'72320477'
p6750
aa(lp6751
S'72323890'
p6752
aS'72323890'
p6753
aa(lp6754
S'72325912'
p6755
aS'72325912'
p6756
aa(lp6757
S'72326301'
p6758
aS'72326301'
p6759
aa(lp6760
S'72327030'
p6761
aS'72327030'
p6762
aa(lp6763
S'72332240'
p6764
aS'72332240'
p6765
aa(lp6766
S'72333738'
p6767
aS'72333738'
p6768
aa(lp6769
S'72336568'
p6770
aS'72336568'
p6771
aa(lp6772
S'72336861'
p6773
aS'72336861'
p6774
aa(lp6775
S'72337165'
p6776
aS'72337165'
p6777
aa(lp6778
S'72741528'
p6779
aS'72739572'
p6780
aa(lp6781
S'73699809'
p6782
aS'73699809'
p6783
aa(lp6784
S'73850599'
p6785
aS'73515705'
p6786
aa(lp6787
S'74819670'
p6788
aS'74819670'
p6789
aasS'chr36'
p6790
(lp6791
(lp6792
S'4546803'
p6793
aS'4546803'
p6794
aa(lp6795
S'10565156'
p6796
aS'10556248'
p6797
aa(lp6798
S'16838078'
p6799
aS'16761407'
p6800
aa(lp6801
S'18412283'
p6802
aS'18369305'
p6803
aa(lp6804
S'21767727'
p6805
aS'21751464'
p6806
aa(lp6807
S'22986034'
p6808
aS'22986034'
p6809
aa(lp6810
S'24142644'
p6811
aS'24142644'
p6812
aa(lp6813
S'28521589'
p6814
aS'28285841'
p6815
aa(lp6816
S'31773803'
p6817
aS'31760133'
p6818
aa(lp6819
S'32540836'
p6820
aS'32488920'
p6821
aasS'chr31'
p6822
(lp6823
(lp6824
S'3786744'
p6825
aS'3768697'
p6826
aa(lp6827
S'16268387'
p6828
aS'16268387'
p6829
aa(lp6830
S'16269135'
p6831
aS'16269135'
p6832
aa(lp6833
S'16314587'
p6834
aS'16314587'
p6835
aa(lp6836
S'24096853'
p6837
aS'24096853'
p6838
aa(lp6839
S'24632182'
p6840
aS'24370300'
p6841
aa(lp6842
S'24632182'
p6843
aS'24370300'
p6844
aa(lp6845
S'24632182'
p6846
aS'24370300'
p6847
aa(lp6848
S'24632182'
p6849
aS'24370300'
p6850
aa(lp6851
S'29563336'
p6852
aS'29559416'
p6853
aa(lp6854
S'30416025'
p6855
aS'30327233'
p6856
aa(lp6857
S'30478916'
p6858
aS'30478256'
p6859
aa(lp6860
S'31651713'
p6861
aS'31649335'
p6862
aa(lp6863
S'31896382'
p6864
aS'31895696'
p6865
aa(lp6866
S'33123714'
p6867
aS'33123714'
p6868
aa(lp6869
S'38209637'
p6870
aS'38186697'
p6871
aa(lp6872
S'38255826'
p6873
aS'38232357'
p6874
aa(lp6875
S'38967690'
p6876
aS'38964789'
p6877
aa(lp6878
S'38994417'
p6879
aS'38991688'
p6880
aa(lp6881
S'39010556'
p6882
aS'39007492'
p6883
aa(lp6884
S'39104390'
p6885
aS'39061822'
p6886
aa(lp6887
S'39641814'
p6888
aS'39638682'
p6889
aasS'chr30'
p6890
(lp6891
(lp6892
S'6207966'
p6893
aS'6207966'
p6894
aa(lp6895
S'10248171'
p6896
aS'10245557'
p6897
aa(lp6898
S'10866143'
p6899
aS'10838169'
p6900
aa(lp6901
S'11858678'
p6902
aS'11852230'
p6903
aa(lp6904
S'11869210'
p6905
aS'11861238'
p6906
aa(lp6907
S'13529647'
p6908
aS'13527954'
p6909
aa(lp6910
S'13529647'
p6911
aS'13527954'
p6912
aa(lp6913
S'14327360'
p6914
aS'14327360'
p6915
aa(lp6916
S'14328264'
p6917
aS'14323578'
p6918
aa(lp6919
S'14579947'
p6920
aS'14549729'
p6921
aa(lp6922
S'14733987'
p6923
aS'14717132'
p6924
aa(lp6925
S'14792479'
p6926
aS'14792479'
p6927
aa(lp6928
S'17854153'
p6929
aS'17631917'
p6930
aa(lp6931
S'18598380'
p6932
aS'18548094'
p6933
aa(lp6934
S'19009964'
p6935
aS'19009964'
p6936
aa(lp6937
S'19979307'
p6938
aS'19948491'
p6939
aa(lp6940
S'23680833'
p6941
aS'23625984'
p6942
aa(lp6943
S'23760115'
p6944
aS'23760115'
p6945
aa(lp6946
S'26161962'
p6947
aS'26067779'
p6948
aa(lp6949
S'26574586'
p6950
aS'26441490'
p6951
aa(lp6952
S'27055634'
p6953
aS'27033532'
p6954
aa(lp6955
S'28202677'
p6956
aS'28169277'
p6957
aa(lp6958
S'30424692'
p6959
aS'30424692'
p6960
aa(lp6961
S'32121391'
p6962
aS'32118548'
p6963
aa(lp6964
S'33213004'
p6965
aS'33195536'
p6966
aa(lp6967
S'33754600'
p6968
aS'33677367'
p6969
aa(lp6970
S'33765929'
p6971
aS'33761101'
p6972
aa(lp6973
S'34353623'
p6974
aS'34239837'
p6975
aa(lp6976
S'35257098'
p6977
aS'35240622'
p6978
aa(lp6979
S'35773330'
p6980
aS'35736280'
p6981
aa(lp6982
S'35977553'
p6983
aS'35948510'
p6984
aa(lp6985
S'37420561'
p6986
aS'37374851'
p6987
aa(lp6988
S'40821668'
p6989
aS'40816887'
p6990
aa(lp6991
S'40965465'
p6992
aS'40954375'
p6993
aa(lp6994
S'41213831'
p6995
aS'41213831'
p6996
aas.