(dp1
S'chrUn_JH373758'
p2
(lp3
(lp4
I16274
aI16276
aasS'chrUn_JH373733'
p5
(lp6
(lp7
I3621
aI3621
aasS'chr33'
p8
(lp9
(lp10
I7789611
aI7927470
aa(lp11
I8147159
aI8154401
aa(lp12
I10984057
aI11191129
aa(lp13
I13319503
aI13362824
aa(lp14
I18506963
aI18506963
aa(lp15
I22904159
aI22920814
aa(lp16
I23180683
aI23199851
aa(lp17
I23310802
aI23313017
aa(lp18
I23649411
aI23649411
aa(lp19
I25047316
aI25109695
aa(lp20
I25256283
aI25317223
aa(lp21
I25406088
aI25432559
aa(lp22
I26346254
aI26490120
aa(lp23
I29208828
aI29230606
aa(lp24
I29672241
aI29672241
aa(lp25
I30526056
aI30553906
aasS'chr32'
p26
(lp27
(lp28
I598405
aI599925
aa(lp29
I4509083
aI4528874
aa(lp30
I11212530
aI11222805
aa(lp31
I11443843
aI11490102
aa(lp32
I11809525
aI11809741
aa(lp33
I11809834
aI11812349
aa(lp34
I17172558
aI17189253
aa(lp35
I17933944
aI17974217
aa(lp36
I21249739
aI21261130
aa(lp37
I21890267
aI21891991
aa(lp38
I22690572
aI22996581
aa(lp39
I23948605
aI24040011
aa(lp40
I24421452
aI24439980
aa(lp41
I24812343
aI24888452
aa(lp42
I29017437
aI29027729
aa(lp43
I30074078
aI30166295
aa(lp44
I32428972
aI32428972
aa(lp45
I32429101
aI32429101
aa(lp46
I32429277
aI32429277
aa(lp47
I32429433
aI32429433
aa(lp48
I32429574
aI32429574
aa(lp49
I33636116
aI33715867
aa(lp50
I38276966
aI38405803
aasS'chrUn_AAEX03023109'
p51
(lp52
(lp53
I4202
aI5141
aasS'chrUn_JH373412'
p54
(lp55
(lp56
I34442
aI34444
aasS'chr13'
p57
(lp58
(lp59
I1539022
aI1539022
aa(lp60
I1539151
aI1539151
aa(lp61
I4366708
aI4378741
aa(lp62
I4733177
aI4771294
aa(lp63
I6435367
aI6795849
aa(lp64
I8071277
aI8311602
aa(lp65
I9751784
aI9751784
aa(lp66
I10086959
aI10099314
aa(lp67
I21961088
aI22010543
aa(lp68
I23338488
aI23344322
aa(lp69
I25201155
aI25205309
aa(lp70
I29350725
aI29597908
aa(lp71
I29691003
aI29732822
aa(lp72
I30906097
aI30906097
aa(lp73
I30910365
aI30910365
aa(lp74
I35353744
aI35353744
aa(lp75
I37325575
aI37330141
aa(lp76
I38196022
aI38202096
aa(lp77
I40257040
aI40257040
aa(lp78
I40692978
aI40692978
aa(lp79
I43831575
aI43843650
aa(lp80
I47108531
aI47189831
aa(lp81
I47442860
aI47484574
aa(lp82
I48688312
aI48716581
aa(lp83
I58253111
aI58266600
aa(lp84
I58993956
aI59007420
aa(lp85
I59229626
aI59244387
aa(lp86
I59438010
aI59442462
aa(lp87
I59588665
aI59596296
aa(lp88
I62152878
aI62167981
aa(lp89
I62182876
aI62202773
aa(lp90
I62435040
aI62437230
aa(lp91
I62526644
aI62527678
aasS'chr12'
p92
(lp93
(lp94
I332078
aI333764
aa(lp95
I892799
aI895691
aa(lp96
I933320
aI986611
aa(lp97
I1032597
aI1042994
aa(lp98
I1047073
aI1048117
aa(lp99
I1049174
aI1057237
aa(lp100
I1071468
aI1072411
aa(lp101
I1074560
aI1076272
aa(lp102
I1079422
aI1081153
aa(lp103
I1159965
aI1163511
aa(lp104
I1210011
aI1215022
aa(lp105
I1285460
aI1287386
aa(lp106
I1450739
aI1453199
aa(lp107
I1574422
aI1577111
aa(lp108
I2133123
aI2136678
aa(lp109
I2151732
aI2164526
aa(lp110
I2221187
aI2226509
aa(lp111
I2245129
aI2250733
aa(lp112
I2378545
aI2383628
aa(lp113
I2408269
aI2416895
aa(lp114
I2419688
aI2422810
aa(lp115
I2424464
aI2431963
aa(lp116
I2432578
aI2437948
aa(lp117
I2503421
aI2508275
aa(lp118
I2517243
aI2520528
aa(lp119
I2538250
aI2545402
aa(lp120
I2565599
aI2568287
aa(lp121
I2664311
aI2666909
aa(lp122
I2670990
aI2670990
aa(lp123
I2671884
aI2675161
aa(lp124
I2698013
aI2712559
aa(lp125
I2713002
aI2718614
aa(lp126
I2719553
aI2720705
aa(lp127
I2729832
aI2730757
aa(lp128
I2741359
aI2751617
aa(lp129
I2951586
aI2954804
aa(lp130
I3137567
aI3144024
aa(lp131
I3200813
aI3200813
aa(lp132
I3533101
aI3537249
aa(lp133
I3567569
aI3686734
aa(lp134
I3714033
aI3719297
aa(lp135
I3996612
aI4010666
aa(lp136
I4566356
aI4578863
aa(lp137
I4601793
aI4604111
aa(lp138
I4911663
aI4913565
aa(lp139
I5146036
aI5219239
aa(lp140
I5377868
aI5422138
aa(lp141
I6213503
aI6217090
aa(lp142
I9990972
aI10000150
aa(lp143
I11300695
aI11315935
aa(lp144
I12209308
aI12223072
aa(lp145
I12638121
aI12644066
aa(lp146
I12665809
aI12667966
aa(lp147
I14818607
aI14841417
aa(lp148
I14867024
aI14885931
aa(lp149
I17434315
aI17454275
aa(lp150
I17850021
aI17850803
aa(lp151
I18544534
aI18569879
aa(lp152
I19805582
aI19805582
aa(lp153
I19854138
aI19861815
aa(lp154
I20349407
aI20357539
aa(lp155
I20427196
aI20442176
aa(lp156
I20514776
aI20562004
aa(lp157
I22517779
aI22623189
aa(lp158
I23593471
aI23594596
aa(lp159
I26853209
aI26884087
aa(lp160
I33142620
aI33320398
aa(lp161
I33321690
aI33400516
aa(lp162
I33757960
aI33757960
aa(lp163
I33783956
aI33783956
aa(lp164
I35448252
aI35449423
aa(lp165
I35578031
aI35580172
aa(lp166
I36887658
aI36887658
aa(lp167
I38659087
aI38659546
aa(lp168
I40720162
aI40720162
aa(lp169
I40720165
aI40720165
aa(lp170
I43923241
aI44058315
aa(lp171
I46611067
aI46613039
aa(lp172
I46968663
aI46991824
aa(lp173
I48375009
aI48375009
aa(lp174
I54771425
aI54772505
aa(lp175
I58083915
aI58108328
aa(lp176
I66509603
aI66632673
aasS'chr11'
p177
(lp178
(lp179
I509635
aI510829
aa(lp180
I838401
aI839661
aa(lp181
I860504
aI861830
aa(lp182
I1704673
aI1704673
aa(lp183
I1968032
aI1982453
aa(lp184
I2739957
aI2742576
aa(lp185
I5312382
aI5313099
aa(lp186
I5346613
aI5356638
aa(lp187
I14017159
aI14017159
aa(lp188
I14017510
aI14017510
aa(lp189
I14017515
aI14017515
aa(lp190
I14017756
aI14017756
aa(lp191
I20330530
aI20332279
aa(lp192
I20344670
aI20346602
aa(lp193
I20825645
aI20827241
aa(lp194
I20958514
aI20960593
aa(lp195
I20972755
aI20981443
aa(lp196
I21144367
aI21147237
aa(lp197
I21314135
aI21361720
aa(lp198
I22352806
aI22364024
aa(lp199
I22388326
aI22410051
aa(lp200
I25355432
aI25355432
aa(lp201
I25935847
aI25939664
aa(lp202
I26080816
aI26110481
aa(lp203
I26771918
aI26789290
aa(lp204
I26901019
aI26913052
aa(lp205
I27243281
aI27254852
aa(lp206
I33317689
aI33334838
aa(lp207
I39037527
aI39038079
aa(lp208
I39161462
aI39165084
aa(lp209
I40301020
aI40301020
aa(lp210
I40668294
aI40668855
aa(lp211
I40726567
aI40727131
aa(lp212
I40862586
aI40863150
aa(lp213
I40904496
aI40904496
aa(lp214
I41261217
aI41264379
aa(lp215
I44895444
aI44895444
aa(lp216
I45208836
aI45208836
aa(lp217
I45641626
aI45642256
aa(lp218
I46819544
aI46819544
aa(lp219
I49822123
aI49833510
aa(lp220
I50113189
aI50123790
aa(lp221
I50156645
aI50156645
aa(lp222
I50157374
aI50167379
aa(lp223
I51227594
aI51245188
aa(lp224
I51334890
aI51335591
aa(lp225
I51357705
aI51359207
aa(lp226
I51375106
aI51375790
aa(lp227
I52197461
aI52200738
aa(lp228
I52205667
aI52211108
aa(lp229
I52519342
aI52594630
aa(lp230
I56279888
aI56286098
aa(lp231
I57043305
aI57194713
aa(lp232
I60565458
aI60566400
aa(lp233
I60626787
aI60627750
aa(lp234
I64197191
aI64197191
aa(lp235
I64842168
aI64987265
aa(lp236
I66234643
aI66260051
aa(lp237
I66439464
aI66472585
aa(lp238
I66883169
aI66944201
aa(lp239
I67298357
aI67305820
aa(lp240
I67305893
aI67305893
aa(lp241
I67379405
aI67383562
aa(lp242
I68461968
aI68461968
aa(lp243
I69078162
aI69141315
aa(lp244
I71356397
aI71366583
aa(lp245
I74272215
aI74284278
aasS'chr10'
p246
(lp247
(lp248
I292704
aI300093
aa(lp249
I702843
aI706117
aa(lp250
I706151
aI706151
aa(lp251
I938795
aI948157
aa(lp252
I1162222
aI1165900
aa(lp253
I1233690
aI1243153
aa(lp254
I1880572
aI1880572
aa(lp255
I6266216
aI6269662
aa(lp256
I10407490
aI10411601
aa(lp257
I10936612
aI10962527
aa(lp258
I11346499
aI11350639
aa(lp259
I13442610
aI13526537
aa(lp260
I16691926
aI16694346
aa(lp261
I17025360
aI17032702
aa(lp262
I19940810
aI19963938
aa(lp263
I20033472
aI20033472
aa(lp264
I20034387
aI20034387
aa(lp265
I20818939
aI20818939
aa(lp266
I21084625
aI21132533
aa(lp267
I21164529
aI21188263
aa(lp268
I22829897
aI22848169
aa(lp269
I23246392
aI23246392
aa(lp270
I23255344
aI23258394
aa(lp271
I23456673
aI23456673
aa(lp272
I24380082
aI24411481
aa(lp273
I24527576
aI24529951
aa(lp274
I25739114
aI25745431
aa(lp275
I25798937
aI25817213
aa(lp276
I25912095
aI25913801
aa(lp277
I26757819
aI26784879
aa(lp278
I26932350
aI26935575
aa(lp279
I27012573
aI27015748
aa(lp280
I27182861
aI27182861
aa(lp281
I27296114
aI27296114
aa(lp282
I27329173
aI27330451
aa(lp283
I27374248
aI27386601
aa(lp284
I27860965
aI27860965
aa(lp285
I28063644
aI28121533
aa(lp286
I28744403
aI28751544
aa(lp287
I30627358
aI30681515
aa(lp288
I33905917
aI34021549
aa(lp289
I37131664
aI37131664
aa(lp290
I40365667
aI40365667
aa(lp291
I41464933
aI41520906
aa(lp292
I41832884
aI41841783
aa(lp293
I44234003
aI44260713
aa(lp294
I44979739
aI44985971
aa(lp295
I45756008
aI46081870
aa(lp296
I46700598
aI46735628
aa(lp297
I50455031
aI50467307
aa(lp298
I50488544
aI50533367
aa(lp299
I54712746
aI54786749
aa(lp300
I56133061
aI56135293
aa(lp301
I56754647
aI56754647
aa(lp302
I56761534
aI56761534
aa(lp303
I56772914
aI56772914
aa(lp304
I61886298
aI62058698
aa(lp305
I64564424
aI64590505
aa(lp306
I67396041
aI67419765
aa(lp307
I68432124
aI68465171
aa(lp308
I68826407
aI68836703
aasS'chr17'
p309
(lp310
(lp311
I773911
aI809916
aa(lp312
I2118057
aI2127795
aa(lp313
I6590475
aI6638582
aa(lp314
I7153051
aI7153051
aa(lp315
I9227132
aI9249821
aa(lp316
I13107389
aI13107389
aa(lp317
I15439142
aI15439733
aa(lp318
I19575932
aI19575932
aa(lp319
I20181855
aI20264489
aa(lp320
I20431293
aI20467697
aa(lp321
I21080049
aI21092287
aa(lp322
I21434250
aI21459925
aa(lp323
I21491660
aI21491662
aa(lp324
I21620510
aI21620512
aa(lp325
I21784234
aI21793234
aa(lp326
I22680690
aI22699990
aa(lp327
I22902009
aI22910537
aa(lp328
I25017499
aI25056156
aa(lp329
I29496254
aI29525155
aa(lp330
I30273280
aI30277786
aa(lp331
I31201114
aI31235088
aa(lp332
I32007296
aI32307690
aa(lp333
I34977797
aI35000255
aa(lp334
I35076725
aI35136418
aa(lp335
I35163731
aI35203009
aa(lp336
I36970731
aI36978712
aa(lp337
I37019471
aI37023990
aa(lp338
I37244756
aI37249326
aa(lp339
I37307129
aI37362675
aa(lp340
I38032478
aI38036424
aa(lp341
I38242249
aI38247899
aa(lp342
I38396057
aI38400360
aa(lp343
I38744692
aI38744692
aa(lp344
I39527161
aI39532405
aa(lp345
I44827026
aI44829249
aa(lp346
I44859340
aI44861535
aa(lp347
I48038009
aI48178971
aa(lp348
I48610412
aI48613396
aa(lp349
I51412714
aI51412714
aa(lp350
I52363463
aI52363811
aa(lp351
I52412768
aI52418187
aa(lp352
I52684439
aI52685305
aa(lp353
I52900698
aI52901607
aa(lp354
I53235182
aI53298891
aa(lp355
I53828480
aI53847015
aa(lp356
I56553194
aI56560651
aa(lp357
I58289792
aI58290869
aa(lp358
I59093100
aI59101871
aa(lp359
I59761118
aI59763030
aa(lp360
I59894209
aI59910743
aa(lp361
I59929301
aI59936706
aa(lp362
I60141014
aI60142691
aa(lp363
I60257448
aI60294232
aa(lp364
I60306253
aI60313483
aa(lp365
I60559143
aI60577467
aa(lp366
I60753381
aI60758920
aa(lp367
I60789556
aI60792849
aa(lp368
I61698557
aI61698977
aa(lp369
I61805825
aI61805825
aa(lp370
I63895587
aI63898190
aasS'chr16'
p371
(lp372
(lp373
I1101493
aI1101493
aa(lp374
I1148314
aI1148314
aa(lp375
I1275468
aI1275468
aa(lp376
I1707114
aI1707116
aa(lp377
I5966895
aI5967849
aa(lp378
I6230850
aI6231777
aa(lp379
I6344464
aI6373489
aa(lp380
I6380777
aI6396159
aa(lp381
I6439096
aI6440017
aa(lp382
I6465642
aI6466605
aa(lp383
I7224076
aI7225027
aa(lp384
I7406854
aI7407742
aa(lp385
I7435146
aI7436097
aa(lp386
I7452020
aI7460664
aa(lp387
I9120787
aI9241553
aa(lp388
I9343736
aI9404427
aa(lp389
I9413448
aI9418161
aa(lp390
I10434230
aI10434232
aa(lp391
I10437411
aI10437411
aa(lp392
I10452272
aI10452274
aa(lp393
I11628392
aI11628392
aa(lp394
I12316491
aI12369127
aa(lp395
I12929066
aI12929066
aa(lp396
I13156477
aI13157791
aa(lp397
I13901349
aI13901351
aa(lp398
I13916284
aI13916284
aa(lp399
I13946268
aI13946270
aa(lp400
I13954777
aI13954777
aa(lp401
I13973916
aI13973916
aa(lp402
I14548096
aI14599024
aa(lp403
I15009169
aI15041504
aa(lp404
I15054435
aI15072024
aa(lp405
I15126818
aI15130857
aa(lp406
I15278855
aI15278855
aa(lp407
I15641631
aI15641631
aa(lp408
I17313661
aI17313661
aa(lp409
I17324754
aI17324754
aa(lp410
I19932457
aI19932457
aa(lp411
I23277201
aI23287263
aa(lp412
I23501137
aI23516538
aa(lp413
I23959026
aI23959026
aa(lp414
I23989995
aI23989995
aa(lp415
I26379906
aI26379906
aa(lp416
I26414700
aI26551057
aa(lp417
I27326423
aI27330998
aa(lp418
I27445600
aI27446796
aa(lp419
I31194876
aI31264963
aa(lp420
I34150273
aI34156832
aa(lp421
I34179889
aI34189015
aa(lp422
I34814900
aI34814900
aa(lp423
I35465151
aI35465151
aa(lp424
I36534225
aI36927953
aa(lp425
I38173783
aI38173783
aa(lp426
I44469826
aI44486258
aa(lp427
I44493036
aI44516474
aa(lp428
I45931962
aI45940168
aa(lp429
I46736344
aI46750712
aa(lp430
I53259317
aI53269216
aa(lp431
I58306762
aI58529090
aa(lp432
I58871171
aI58881440
aa(lp433
I58953971
aI58955680
aa(lp434
I58965312
aI58966660
aa(lp435
I58993962
aI58995731
aa(lp436
I59006364
aI59011878
aa(lp437
I59031847
aI59033519
aasS'chr15'
p438
(lp439
(lp440
I464181
aI492257
aa(lp441
I1090142
aI1091277
aa(lp442
I1285441
aI1285441
aa(lp443
I1648076
aI1653727
aa(lp444
I2280110
aI2280110
aa(lp445
I2283369
aI2283369
aa(lp446
I2647619
aI2661349
aa(lp447
I2860299
aI2885085
aa(lp448
I3865216
aI3870760
aa(lp449
I4862932
aI4875498
aa(lp450
I7125557
aI7125836
aa(lp451
I8290116
aI8350683
aa(lp452
I9455457
aI9455457
aa(lp453
I13510164
aI13546660
aa(lp454
I13604172
aI13623014
aa(lp455
I13638797
aI13656750
aa(lp456
I13663487
aI13673214
aa(lp457
I14792488
aI14798870
aa(lp458
I14841372
aI14855386
aa(lp459
I17475521
aI17476490
aa(lp460
I17513914
aI17514853
aa(lp461
I17530842
aI17531778
aa(lp462
I17610002
aI17610947
aa(lp463
I17705840
aI17705840
aa(lp464
I17787141
aI17789158
aa(lp465
I17997440
aI17997878
aa(lp466
I18037514
aI18037970
aa(lp467
I18323808
aI18387548
aa(lp468
I26986676
aI26986676
aa(lp469
I27361138
aI27372044
aa(lp470
I29599327
aI29671780
aa(lp471
I30549975
aI30616215
aa(lp472
I31834102
aI31872963
aa(lp473
I32469120
aI32469120
aa(lp474
I35234839
aI35234839
aa(lp475
I37181479
aI37181479
aa(lp476
I39178958
aI39178958
aa(lp477
I41036427
aI41037553
aa(lp478
I41203483
aI41275699
aa(lp479
I42456887
aI42473848
aa(lp480
I43023231
aI43049614
aa(lp481
I45827125
aI45876305
aa(lp482
I51462883
aI51465241
aa(lp483
I51541355
aI51548765
aa(lp484
I53205809
aI53234355
aa(lp485
I53266241
aI53311785
aa(lp486
I55752323
aI55780693
aa(lp487
I59581839
aI59583092
aa(lp488
I59606910
aI59608251
aa(lp489
I61298604
aI61306460
aasS'chr14'
p490
(lp491
(lp492
I835526
aI836386
aa(lp493
I2695310
aI2696270
aa(lp494
I2991937
aI3006606
aa(lp495
I3120980
aI3149701
aa(lp496
I5575422
aI5620458
aa(lp497
I6184521
aI6184521
aa(lp498
I6184903
aI6184903
aa(lp499
I6444918
aI6444918
aa(lp500
I7068602
aI7068602
aa(lp501
I7068842
aI7068842
aa(lp502
I7072796
aI7072796
aa(lp503
I8118528
aI8120521
aa(lp504
I8165174
aI8165174
aa(lp505
I9182331
aI9182331
aa(lp506
I13645289
aI13742216
aa(lp507
I18924922
aI18983146
aa(lp508
I19415883
aI19420121
aa(lp509
I19883867
aI19919205
aa(lp510
I20127767
aI20130025
aa(lp511
I20653822
aI20680914
aa(lp512
I22318855
aI22318857
aa(lp513
I27345806
aI27346718
aa(lp514
I27428748
aI27429132
aa(lp515
I32120841
aI32122770
aa(lp516
I36474324
aI36478096
aa(lp517
I38580323
aI38580765
aa(lp518
I38652922
aI38656193
aa(lp519
I39301906
aI39301906
aa(lp520
I40344062
aI40344062
aa(lp521
I40346461
aI40348900
aa(lp522
I42807603
aI42860053
aa(lp523
I43592296
aI43603805
aa(lp524
I55217765
aI55239586
aa(lp525
I55437909
aI55443335
aa(lp526
I55461083
aI55492691
aa(lp527
I55626453
aI55709664
aa(lp528
I55763692
aI55823268
aa(lp529
I56290416
aI56452919
aasS'chr19'
p530
(lp531
(lp532
I1340261
aI1352370
aa(lp533
I2282623
aI2289902
aa(lp534
I2414643
aI2445412
aa(lp535
I4289914
aI4358220
aa(lp536
I13642578
aI13642578
aa(lp537
I17641905
aI17649009
aa(lp538
I17750809
aI17756127
aa(lp539
I18420255
aI18449616
aa(lp540
I23173946
aI23182171
aa(lp541
I23937795
aI23938788
aa(lp542
I23946922
aI23948112
aa(lp543
I25610572
aI26397697
aa(lp544
I29892734
aI29893787
aa(lp545
I29986400
aI30054090
aa(lp546
I30640649
aI30645627
aa(lp547
I38436011
aI38436011
aa(lp548
I38874694
aI38877718
aasS'chr18'
p549
(lp550
(lp551
I5564608
aI5568912
aa(lp552
I12704030
aI12734394
aa(lp553
I20346761
aI20372639
aa(lp554
I21333222
aI21410104
aa(lp555
I25643156
aI25644662
aa(lp556
I25675546
aI25675546
aa(lp557
I25773785
aI25778944
aa(lp558
I26154596
aI26154596
aa(lp559
I32657655
aI32707606
aa(lp560
I32738395
aI32826293
aa(lp561
I32990204
aI32990204
aa(lp562
I33383635
aI33422441
aa(lp563
I33698620
aI33733678
aa(lp564
I38479670
aI38480227
aa(lp565
I38498832
aI38517621
aa(lp566
I38543679
aI38543679
aa(lp567
I39914720
aI39915686
aa(lp568
I39968638
aI39969574
aa(lp569
I40086166
aI40087102
aa(lp570
I41142495
aI41145658
aa(lp571
I41570756
aI41571773
aa(lp572
I42271249
aI42288286
aa(lp573
I42817270
aI42830458
aa(lp574
I43605314
aI43609991
aa(lp575
I43669062
aI43669062
aa(lp576
I46010661
aI46019388
aa(lp577
I46207573
aI46207573
aa(lp578
I46297343
aI46299919
aa(lp579
I46324146
aI46324751
aa(lp580
I46327375
aI46334973
aa(lp581
I46690498
aI46690498
aa(lp582
I46690679
aI46690679
aa(lp583
I47135616
aI47136477
aa(lp584
I47168452
aI47168452
aa(lp585
I48502099
aI48509686
aa(lp586
I49010187
aI49014208
aa(lp587
I49148190
aI49187929
aa(lp588
I49240630
aI49246241
aa(lp589
I49796595
aI49799675
aa(lp590
I49905242
aI49908098
aa(lp591
I50062447
aI50065033
aa(lp592
I50748200
aI50759167
aa(lp593
I51707474
aI51707474
aa(lp594
I52281193
aI52281193
aa(lp595
I52347342
aI52352340
aa(lp596
I52542497
aI52549655
aa(lp597
I52756343
aI52761329
aa(lp598
I52781925
aI52791391
aa(lp599
I53034548
aI53041470
aa(lp600
I53049141
aI53050445
aa(lp601
I53241986
aI53297808
aa(lp602
I53438050
aI53446353
aa(lp603
I53810557
aI53818867
aa(lp604
I54466221
aI54468577
aa(lp605
I54469200
aI54478658
aa(lp606
I55131607
aI55140080
aa(lp607
I55429307
aI55430510
aasS'chr38'
p608
(lp609
(lp610
I216684
aI222514
aa(lp611
I744729
aI755012
aa(lp612
I1670090
aI1716254
aa(lp613
I1926646
aI1926646
aa(lp614
I2852096
aI2871410
aa(lp615
I5826208
aI5937930
aa(lp616
I14895186
aI14895186
aa(lp617
I14895458
aI14895458
aa(lp618
I14977090
aI14977090
aa(lp619
I17579290
aI17579290
aa(lp620
I17670398
aI17676699
aa(lp621
I21263851
aI21265787
aa(lp622
I21268000
aI21270940
aa(lp623
I21378143
aI21392423
aa(lp624
I21653819
aI21685376
aa(lp625
I21878743
aI21891356
aa(lp626
I22199751
aI22202114
aa(lp627
I22396792
aI22398180
aa(lp628
I22683727
aI22688765
aa(lp629
I22982049
aI22983003
aa(lp630
I22993595
aI22994546
aa(lp631
I23158143
aI23159100
aa(lp632
I23265395
aI23266340
aa(lp633
I23316202
aI23319767
aa(lp634
I23328182
aI23331270
aa(lp635
I23382407
aI23385329
aa(lp636
I23702737
aI23705314
aasS'chrUn_JH373389'
p637
(lp638
(lp639
I12309
aI12311
aa(lp640
I15486
aI15486
aasS'chrUn_AAEX03024516'
p641
(lp642
(lp643
I838
aI838
aasS'chrX'
p644
(lp645
(lp646
I414861
aI424071
aa(lp647
I1536951
aI1554434
aa(lp648
I1567455
aI1586248
aa(lp649
I2918197
aI2924113
aa(lp650
I9334274
aI9358592
aa(lp651
I10123550
aI10124156
aa(lp652
I11799763
aI11838565
aa(lp653
I20545444
aI20556206
aa(lp654
I21742164
aI21742470
aa(lp655
I22993625
aI22994762
aa(lp656
I26293464
aI28333431
aa(lp657
I29678600
aI29705749
aa(lp658
I32533364
aI32568149
aa(lp659
I32605608
aI32611208
aa(lp660
I33056633
aI33105037
aa(lp661
I37678932
aI37744628
aa(lp662
I37766648
aI37883906
aa(lp663
I38746223
aI38958642
aa(lp664
I39523951
aI39523951
aa(lp665
I39524608
aI39524608
aa(lp666
I40834200
aI40842302
aa(lp667
I41202563
aI41205211
aa(lp668
I41967839
aI41979032
aa(lp669
I42062234
aI42071008
aa(lp670
I42344113
aI42350675
aa(lp671
I42774738
aI42774738
aa(lp672
I42775143
aI42775143
aa(lp673
I42779930
aI42779930
aa(lp674
I42780435
aI42780435
aa(lp675
I42784023
aI42784023
aa(lp676
I42785659
aI42785659
aa(lp677
I42967004
aI43011888
aa(lp678
I43758691
aI43758691
aa(lp679
I44921823
aI44951567
aa(lp680
I45253772
aI45253772
aa(lp681
I47487857
aI47487857
aa(lp682
I48070579
aI48070581
aa(lp683
I49313471
aI49313471
aa(lp684
I50838233
aI50838233
aa(lp685
I51969784
aI52151852
aa(lp686
I54078965
aI54511685
aa(lp687
I55481173
aI55484689
aa(lp688
I55882432
aI55884525
aa(lp689
I56290978
aI56296229
aa(lp690
I57550110
aI57550110
aa(lp691
I57550268
aI57550268
aa(lp692
I57590306
aI57590306
aa(lp693
I57590445
aI57590445
aa(lp694
I59390477
aI59390477
aa(lp695
I59444020
aI59444020
aa(lp696
I66698760
aI66698760
aa(lp697
I71568646
aI71568646
aa(lp698
I75268324
aI75270186
aa(lp699
I75426634
aI75428014
aa(lp700
I76473642
aI76473999
aa(lp701
I76666685
aI76666685
aa(lp702
I77191254
aI77205732
aa(lp703
I80483966
aI80484659
aa(lp704
I81982448
aI82247247
aa(lp705
I83271919
aI83271919
aa(lp706
I87389885
aI87389885
aa(lp707
I87476889
aI87638579
aa(lp708
I87747465
aI87773173
aa(lp709
I91329351
aI91336722
aa(lp710
I91867847
aI91868741
aa(lp711
I92445241
aI92445980
aa(lp712
I93909646
aI93909646
aa(lp713
I95331834
aI95351569
aa(lp714
I96561005
aI96561005
aa(lp715
I101464600
aI101495844
aa(lp716
I104895723
aI104895723
aa(lp717
I104895886
aI104895886
aa(lp718
I104896025
aI104896025
aa(lp719
I104896158
aI104896158
aa(lp720
I104896415
aI104896415
aa(lp721
I104896574
aI104896574
aa(lp722
I105115880
aI105153077
aa(lp723
I105177344
aI105177344
aa(lp724
I105177529
aI105177529
aa(lp725
I105178417
aI105178417
aa(lp726
I105183201
aI105183201
aa(lp727
I105183493
aI105183493
aa(lp728
I105200927
aI105201566
aa(lp729
I105397063
aI105415532
aa(lp730
I106848978
aI106865520
aa(lp731
I107011171
aI107022220
aa(lp732
I108693145
aI108693145
aa(lp733
I109501564
aI109532124
aa(lp734
I109866523
aI109866523
aa(lp735
I114675906
aI114675906
aa(lp736
I114676943
aI114676943
aa(lp737
I114678595
aI114678595
aa(lp738
I114680061
aI114680061
aa(lp739
I114681010
aI114681010
aa(lp740
I114684202
aI114684202
aa(lp741
I114686259
aI114686259
aa(lp742
I114687132
aI114687132
aa(lp743
I114688977
aI114688977
aa(lp744
I114689915
aI114689915
aa(lp745
I114717200
aI114717200
aa(lp746
I115652517
aI115652517
aa(lp747
I115652825
aI115652825
aa(lp748
I115658471
aI115658471
aa(lp749
I115658681
aI115658681
aa(lp750
I115665474
aI115665474
aa(lp751
I115688082
aI115688082
aa(lp752
I117494988
aI117515419
aa(lp753
I118541461
aI118541461
aa(lp754
I119430021
aI119435516
aa(lp755
I119925413
aI119925413
aa(lp756
I119926463
aI119926463
aa(lp757
I120403275
aI120403275
aa(lp758
I120405428
aI120405428
aa(lp759
I121330402
aI121334379
aa(lp760
I121609004
aI121613733
aa(lp761
I121752812
aI121754436
aa(lp762
I121862688
aI121862688
aa(lp763
I121974551
aI121987418
aa(lp764
I122141632
aI122146724
aa(lp765
I122852115
aI122878791
aa(lp766
I122897136
aI123043178
aa(lp767
I123046480
aI123063752
aa(lp768
I123269260
aI123291233
aasS'chrUn_JH373785'
p769
(lp770
(lp771
I7376
aI7378
aasS'chrUn_JH374091'
p772
(lp773
(lp774
I8524
aI8524
aasS'chrUn_JH373243'
p775
(lp776
(lp777
I242651
aI247542
aasS'chrUn_JH373278'
p778
(lp779
(lp780
I238970
aI238970
aa(lp781
I383500
aI385842
aasS'chrUn_JH373377'
p782
(lp783
(lp784
I11853
aI11853
aasS'chrUn_JH373668'
p785
(lp786
(lp787
I1031
aI1031
aasS'chrUn_JH373534'
p788
(lp789
(lp790
I9022
aI12737
aasS'chrUn_JH373600'
p791
(lp792
(lp793
I28077
aI28077
aasS'chrUn_JH373332'
p794
(lp795
(lp796
I27588
aI28539
aasS'chrUn_JH373584'
p797
(lp798
(lp799
I3063
aI8367
aasS'chr6'
p800
(lp801
(lp802
I730520
aI743852
aa(lp803
I5910435
aI5910435
aa(lp804
I6186598
aI6186598
aa(lp805
I6534436
aI6535093
aa(lp806
I7151351
aI7154509
aa(lp807
I7167262
aI7169180
aa(lp808
I7287721
aI7315923
aa(lp809
I7487270
aI7488440
aa(lp810
I7586240
aI7594600
aa(lp811
I8721203
aI8726160
aa(lp812
I8994698
aI8995954
aa(lp813
I9498616
aI9498616
aa(lp814
I9498840
aI9498840
aa(lp815
I9499051
aI9499051
aa(lp816
I9623264
aI9629139
aa(lp817
I9777970
aI9815264
aa(lp818
I9837021
aI9869276
aa(lp819
I11447224
aI11478611
aa(lp820
I11732979
aI11757069
aa(lp821
I12421880
aI12423780
aa(lp822
I12453941
aI12453941
aa(lp823
I13983035
aI13983035
aa(lp824
I14518775
aI14518775
aa(lp825
I15817550
aI15817550
aa(lp826
I15853577
aI15853577
aa(lp827
I16272916
aI16291605
aa(lp828
I16711024
aI16711948
aa(lp829
I16766204
aI16772112
aa(lp830
I16808970
aI16833702
aa(lp831
I17299744
aI17303048
aa(lp832
I17414918
aI17418809
aa(lp833
I17433895
aI17435428
aa(lp834
I17667908
aI17669252
aa(lp835
I17886134
aI17903131
aa(lp836
I18110606
aI18114430
aa(lp837
I18177196
aI18179406
aa(lp838
I18255504
aI18265772
aa(lp839
I19496166
aI19496643
aa(lp840
I21081200
aI21081200
aa(lp841
I21119896
aI21119896
aa(lp842
I22440181
aI22463187
aa(lp843
I24230244
aI24242422
aa(lp844
I24993193
aI25006473
aa(lp845
I25012193
aI25026432
aa(lp846
I26323658
aI26329491
aa(lp847
I26742852
aI27041666
aa(lp848
I27855727
aI27989323
aa(lp849
I28143390
aI28178474
aa(lp850
I28873221
aI28873221
aa(lp851
I28878108
aI28878108
aa(lp852
I31385179
aI31385179
aa(lp853
I31492307
aI31492691
aa(lp854
I31498360
aI31499687
aa(lp855
I37597043
aI37599303
aa(lp856
I38166719
aI38168133
aa(lp857
I38759094
aI38759094
aa(lp858
I38837963
aI38864499
aa(lp859
I38905968
aI38914935
aa(lp860
I38981765
aI38985648
aa(lp861
I39477791
aI39479621
aa(lp862
I39505486
aI39506753
aa(lp863
I39609034
aI39610132
aa(lp864
I39752162
aI39752162
aa(lp865
I39854227
aI39856383
aa(lp866
I40324427
aI40325403
aa(lp867
I40328155
aI40328978
aa(lp868
I40559329
aI40559329
aa(lp869
I40708494
aI40718311
aa(lp870
I41017153
aI41017155
aa(lp871
I41127831
aI41128785
aa(lp872
I41186125
aI41186127
aa(lp873
I41407080
aI41408580
aa(lp874
I42271779
aI42271779
aa(lp875
I42716213
aI42723603
aa(lp876
I43075852
aI43075852
aa(lp877
I48898722
aI48899871
aa(lp878
I49342441
aI49359681
aa(lp879
I49954986
aI49976240
aa(lp880
I50042043
aI50111750
aa(lp881
I51640530
aI51640530
aa(lp882
I54709724
aI54719744
aa(lp883
I55058408
aI55185867
aa(lp884
I56475565
aI56483215
aa(lp885
I61299594
aI61340057
aa(lp886
I63482411
aI63512898
aa(lp887
I65598074
aI65750579
aa(lp888
I68460106
aI68498793
aa(lp889
I70724580
aI70741522
aa(lp890
I71656194
aI71675293
aa(lp891
I71826340
aI72107733
aa(lp892
I72132601
aI72138778
aa(lp893
I74881675
aI74881675
aa(lp894
I74932787
aI74986062
aa(lp895
I76887425
aI76910400
aasS'chrUn_JH373319'
p896
(lp897
(lp898
I81253
aI81255
aa(lp899
I98314
aI98316
aasS'chrUn_JH374124'
p900
(lp901
(lp902
I1239
aI3094
aasS'chr26'
p903
(lp904
(lp905
I1435090
aI1549774
aa(lp906
I2890447
aI3089300
aa(lp907
I6287958
aI6292850
aa(lp908
I6734817
aI6735906
aa(lp909
I7125416
aI7144304
aa(lp910
I7173179
aI7175189
aa(lp911
I7940984
aI7983740
aa(lp912
I8148761
aI8208601
aa(lp913
I8302059
aI8309293
aa(lp914
I8498615
aI8518189
aa(lp915
I8624383
aI8632138
aa(lp916
I10385502
aI10395134
aa(lp917
I10404572
aI10422976
aa(lp918
I10432054
aI10447741
aa(lp919
I13787601
aI13871174
aa(lp920
I14522123
aI14526370
aa(lp921
I14526457
aI14526457
aa(lp922
I15337717
aI15349993
aa(lp923
I16148533
aI16153566
aa(lp924
I16248509
aI16257135
aa(lp925
I16837488
aI16850373
aa(lp926
I16855488
aI16869053
aa(lp927
I17308841
aI17329580
aa(lp928
I18257798
aI18259121
aa(lp929
I19300855
aI19308358
aa(lp930
I20177973
aI20190722
aa(lp931
I20274383
aI20280170
aa(lp932
I22578907
aI22607810
aa(lp933
I22726592
aI22734521
aa(lp934
I23403363
aI23406697
aa(lp935
I23637843
aI23639905
aa(lp936
I24108536
aI24110945
aa(lp937
I24884852
aI24956190
aa(lp938
I28026023
aI28124825
aa(lp939
I28141323
aI28149718
aa(lp940
I28730886
aI28740264
aa(lp941
I28860485
aI28860485
aa(lp942
I29195574
aI29207910
aa(lp943
I29255728
aI29255728
aa(lp944
I29296069
aI29296069
aa(lp945
I29360552
aI29365862
aa(lp946
I30924178
aI30924178
aa(lp947
I30924491
aI30924491
aa(lp948
I31022523
aI31132814
aa(lp949
I31301181
aI31301181
aa(lp950
I37853147
aI37913100
aa(lp951
I38472739
aI38486479
aa(lp952
I38884889
aI38885702
aasS'chr27'
p953
(lp954
(lp955
I68502
aI69441
aa(lp956
I98701
aI99640
aa(lp957
I112711
aI113647
aa(lp958
I204080
aI205043
aa(lp959
I766753
aI770929
aa(lp960
I975206
aI975206
aa(lp961
I1230531
aI1230531
aa(lp962
I1270776
aI1270776
aa(lp963
I1300022
aI1300022
aa(lp964
I1906272
aI1909583
aa(lp965
I2189326
aI2193285
aa(lp966
I2221688
aI2229112
aa(lp967
I2269856
aI2280052
aa(lp968
I2290190
aI2296449
aa(lp969
I2320040
aI2325659
aa(lp970
I2337928
aI2346250
aa(lp971
I2422149
aI2427160
aa(lp972
I2447853
aI2454492
aa(lp973
I2477925
aI2488010
aa(lp974
I2536830
aI2545103
aa(lp975
I2567289
aI2573185
aa(lp976
I2706351
aI2712902
aa(lp977
I2948296
aI2952713
aa(lp978
I3542353
aI3560640
aa(lp979
I4746147
aI4750833
aa(lp980
I4923635
aI4932087
aa(lp981
I5408003
aI5412051
aa(lp982
I5739518
aI5752470
aa(lp983
I5861256
aI5863651
aa(lp984
I5898700
aI5900419
aa(lp985
I6620697
aI6640641
aa(lp986
I6757013
aI6787294
aa(lp987
I6994152
aI7015741
aa(lp988
I19784774
aI19794613
aa(lp989
I19984315
aI20025729
aa(lp990
I20032657
aI20089257
aa(lp991
I20430289
aI20458555
aa(lp992
I20612590
aI20619119
aa(lp993
I20674568
aI20685970
aa(lp994
I20706215
aI20733797
aa(lp995
I21464573
aI21467500
aa(lp996
I25473815
aI25492908
aa(lp997
I26295835
aI26299593
aa(lp998
I26412425
aI26466507
aa(lp999
I32599170
aI32877656
aa(lp1000
I33611759
aI33612906
aa(lp1001
I34739536
aI34740508
aa(lp1002
I34748641
aI34749580
aa(lp1003
I34792711
aI34793761
aa(lp1004
I34855684
aI34856629
aa(lp1005
I34876089
aI34877058
aa(lp1006
I34898963
aI34899902
aa(lp1007
I35043755
aI35063800
aa(lp1008
I35146259
aI35153601
aa(lp1009
I35701202
aI35706661
aa(lp1010
I37064181
aI37073128
aa(lp1011
I37298597
aI37309450
aa(lp1012
I37669928
aI37697611
aa(lp1013
I38081753
aI38081753
aa(lp1014
I38082159
aI38082159
aa(lp1015
I38155107
aI38157851
aa(lp1016
I38176437
aI38181148
aa(lp1017
I38204108
aI38243967
aa(lp1018
I38468918
aI38472385
aa(lp1019
I38836372
aI38972467
aa(lp1020
I39808986
aI39810789
aa(lp1021
I39933824
aI39935312
aa(lp1022
I42271397
aI42293045
aa(lp1023
I44131242
aI44132379
aa(lp1024
I45345705
aI45355671
aa(lp1025
I45855224
aI45856181
aasS'chr24'
p1026
(lp1027
(lp1028
I599815
aI601552
aa(lp1029
I5349439
aI5390143
aa(lp1030
I6106427
aI6115403
aa(lp1031
I16634953
aI16704836
aa(lp1032
I16846858
aI16847632
aa(lp1033
I17468430
aI17468430
aa(lp1034
I17512945
aI17520496
aa(lp1035
I18183091
aI18184802
aa(lp1036
I19618580
aI19640623
aa(lp1037
I20591718
aI20593241
aa(lp1038
I20614029
aI20616415
aa(lp1039
I20652637
aI20654574
aa(lp1040
I20670770
aI20673961
aa(lp1041
I20725761
aI20730314
aa(lp1042
I20833053
aI20840751
aa(lp1043
I20894218
aI20900503
aa(lp1044
I20916716
aI20918144
aa(lp1045
I20940687
aI20949326
aa(lp1046
I20949458
aI20949458
aa(lp1047
I20985715
aI20989706
aa(lp1048
I21146728
aI21195943
aa(lp1049
I21608904
aI21632857
aa(lp1050
I22134897
aI22162229
aa(lp1051
I23250895
aI23257134
aa(lp1052
I23389119
aI23393662
aa(lp1053
I23633679
aI23652952
aa(lp1054
I24029607
aI24029607
aa(lp1055
I24184439
aI24187910
aa(lp1056
I24554829
aI24560066
aa(lp1057
I24578295
aI24581067
aa(lp1058
I25326305
aI25329411
aa(lp1059
I25893346
aI25897400
aa(lp1060
I32504711
aI32505833
aa(lp1061
I32566820
aI32568385
aa(lp1062
I32759761
aI32762083
aa(lp1063
I32847274
aI32848892
aa(lp1064
I33183089
aI33188886
aa(lp1065
I33274280
aI33281116
aa(lp1066
I33373239
aI33382917
aa(lp1067
I34662479
aI34662926
aa(lp1068
I34713389
aI34713423
aa(lp1069
I34732923
aI34821144
aa(lp1070
I36440444
aI36441017
aa(lp1071
I36571832
aI36601184
aa(lp1072
I41492795
aI41493767
aa(lp1073
I42205089
aI42293987
aa(lp1074
I42539188
aI42543603
aa(lp1075
I43109488
aI43157917
aa(lp1076
I43605245
aI43658252
aa(lp1077
I44033421
aI44050765
aa(lp1078
I46481136
aI46481136
aa(lp1079
I46490586
aI46490586
aa(lp1080
I46653412
aI46668600
aa(lp1081
I46916788
aI46916790
aa(lp1082
I47408059
aI47408059
aasS'chr25'
p1083
(lp1084
(lp1085
I7735066
aI7796894
aa(lp1086
I8307849
aI8368438
aa(lp1087
I9554196
aI9556640
aa(lp1088
I9793845
aI9793845
aa(lp1089
I10338029
aI10358893
aa(lp1090
I11594145
aI11670445
aa(lp1091
I11742398
aI11746787
aa(lp1092
I12327107
aI12329523
aa(lp1093
I15302195
aI15380463
aa(lp1094
I17008177
aI17014355
aa(lp1095
I17956228
aI17956909
aa(lp1096
I18392705
aI18443182
aa(lp1097
I18448878
aI18538508
aa(lp1098
I19022996
aI19022996
aa(lp1099
I19949446
aI19949446
aa(lp1100
I20564133
aI20613904
aa(lp1101
I24964907
aI24993276
aa(lp1102
I26127852
aI26178331
aa(lp1103
I27536482
aI27536482
aa(lp1104
I28188321
aI28188323
aa(lp1105
I28497481
aI28497481
aa(lp1106
I29986459
aI29999326
aa(lp1107
I30693574
aI30795388
aa(lp1108
I35016729
aI35016729
aa(lp1109
I39854815
aI39958657
aa(lp1110
I40506752
aI40509709
aa(lp1111
I43042305
aI43056361
aa(lp1112
I43563340
aI43567283
aa(lp1113
I43584414
aI43636623
aa(lp1114
I44192036
aI44203202
aa(lp1115
I44813419
aI44843442
aa(lp1116
I45115836
aI45160850
aa(lp1117
I45165069
aI45165069
aa(lp1118
I45273933
aI45350035
aa(lp1119
I47337683
aI47338772
aa(lp1120
I47972125
aI48040605
aa(lp1121
I48128800
aI48167535
aa(lp1122
I48871925
aI48871925
aa(lp1123
I50092786
aI50092786
aa(lp1124
I50208913
aI50209864
aa(lp1125
I50299731
aI50301923
aa(lp1126
I50483602
aI50483602
aa(lp1127
I50859012
aI50923122
aa(lp1128
I51425977
aI51433946
aa(lp1129
I51609015
aI51618669
aasS'chr22'
p1130
(lp1131
(lp1132
I191932
aI225266
aa(lp1133
I1846938
aI1846938
aa(lp1134
I1847084
aI1847084
aa(lp1135
I2513217
aI2515380
aa(lp1136
I4453714
aI4510934
aa(lp1137
I6109373
aI6109373
aa(lp1138
I9834969
aI9834969
aa(lp1139
I30568621
aI30575071
aa(lp1140
I31417739
aI31437576
aa(lp1141
I42478071
aI42478071
aa(lp1142
I42478229
aI42478229
aa(lp1143
I42478355
aI42478355
aa(lp1144
I42478520
aI42478520
aa(lp1145
I42478656
aI42478656
aa(lp1146
I42478772
aI42478772
aa(lp1147
I45271734
aI45305272
aa(lp1148
I45767062
aI46013484
aa(lp1149
I46227991
aI46279069
aa(lp1150
I48778365
aI48827390
aa(lp1151
I52316530
aI52334369
aa(lp1152
I52523678
aI52541976
aa(lp1153
I55567991
aI55609210
aa(lp1154
I57036933
aI57067551
aa(lp1155
I60572510
aI60582692
aa(lp1156
I60898869
aI60904185
aasS'chr23'
p1157
(lp1158
(lp1159
I1777133
aI1777133
aa(lp1160
I2223197
aI2223197
aa(lp1161
I3732096
aI3813912
aa(lp1162
I3844172
aI3845255
aa(lp1163
I5826520
aI5826520
aa(lp1164
I7747133
aI7747133
aa(lp1165
I8281139
aI8358555
aa(lp1166
I8421017
aI8509801
aa(lp1167
I8938926
aI8939997
aa(lp1168
I9071828
aI9076984
aa(lp1169
I9907525
aI9911065
aa(lp1170
I10559769
aI10571852
aa(lp1171
I12094777
aI12096520
aa(lp1172
I12235064
aI12235064
aa(lp1173
I19827256
aI19829099
aa(lp1174
I23304966
aI23329100
aa(lp1175
I30797955
aI30877340
aa(lp1176
I43679910
aI43713869
aa(lp1177
I45247178
aI45267558
aa(lp1178
I45909484
aI45910504
aa(lp1179
I47249495
aI47250617
aa(lp1180
I48971075
aI49059045
aa(lp1181
I49185566
aI49185566
aa(lp1182
I49569611
aI49645978
aasS'chr20'
p1183
(lp1184
(lp1185
I783318
aI844159
aa(lp1186
I2070738
aI2085958
aa(lp1187
I2755488
aI2775153
aa(lp1188
I2926163
aI2928333
aa(lp1189
I2946093
aI2971602
aa(lp1190
I4573487
aI4612471
aa(lp1191
I5226741
aI5226741
aa(lp1192
I5336920
aI5337358
aa(lp1193
I5632149
aI5637404
aa(lp1194
I5751817
aI5756140
aa(lp1195
I6134824
aI6207893
aa(lp1196
I6399547
aI6405051
aa(lp1197
I6653090
aI6703343
aa(lp1198
I7968602
aI7968602
aa(lp1199
I8092973
aI8097381
aa(lp1200
I8206855
aI8211282
aa(lp1201
I8779557
aI8800783
aa(lp1202
I9359546
aI9378248
aa(lp1203
I9385318
aI9397976
aa(lp1204
I13214240
aI13224002
aa(lp1205
I21839588
aI21870380
aa(lp1206
I22725783
aI22756124
aa(lp1207
I30356571
aI31086585
aa(lp1208
I33714293
aI33747661
aa(lp1209
I34776221
aI34786533
aa(lp1210
I36109176
aI36115355
aa(lp1211
I36724061
aI36737498
aa(lp1212
I37461903
aI37461903
aa(lp1213
I37501152
aI37501152
aa(lp1214
I37542973
aI37546969
aa(lp1215
I37964514
aI37964514
aa(lp1216
I38527877
aI38527877
aa(lp1217
I39076127
aI39094661
aa(lp1218
I39129939
aI39133156
aa(lp1219
I39710093
aI39729292
aa(lp1220
I39810733
aI39814028
aa(lp1221
I39815813
aI39819761
aa(lp1222
I39877682
aI39887012
aa(lp1223
I39889173
aI39890052
aa(lp1224
I40144198
aI40144198
aa(lp1225
I40144675
aI40144675
aa(lp1226
I40519495
aI40549992
aa(lp1227
I40790883
aI40792741
aa(lp1228
I40823723
aI40847410
aa(lp1229
I41905375
aI41924476
aa(lp1230
I42232094
aI42263014
aa(lp1231
I42295229
aI42296288
aa(lp1232
I42383134
aI42384214
aa(lp1233
I42424808
aI42425876
aa(lp1234
I42607090
aI42609327
aa(lp1235
I43603744
aI43603744
aa(lp1236
I44013584
aI44017371
aa(lp1237
I44332379
aI44332379
aa(lp1238
I44477233
aI44478796
aa(lp1239
I44707545
aI44719973
aa(lp1240
I45071127
aI45072446
aa(lp1241
I46293648
aI46297975
aa(lp1242
I46334727
aI46351898
aa(lp1243
I46800916
aI46817397
aa(lp1244
I47133243
aI47143364
aa(lp1245
I47499996
aI47500926
aa(lp1246
I47929501
aI47968521
aa(lp1247
I48021444
aI48060135
aa(lp1248
I48205343
aI48219896
aa(lp1249
I48416728
aI48425237
aa(lp1250
I48441134
aI48441134
aa(lp1251
I48593221
aI48593221
aa(lp1252
I48593403
aI48593403
aa(lp1253
I48620386
aI48620386
aa(lp1254
I48620615
aI48620615
aa(lp1255
I48620745
aI48620745
aa(lp1256
I49334523
aI49337007
aa(lp1257
I49569240
aI49570128
aa(lp1258
I49814031
aI49815924
aa(lp1259
I49945913
aI49950494
aa(lp1260
I50410984
aI50410984
aa(lp1261
I50820014
aI50827902
aa(lp1262
I50946334
aI50948636
aa(lp1263
I50949205
aI50952821
aa(lp1264
I52413225
aI52421468
aa(lp1265
I52518080
aI52520931
aa(lp1266
I52613404
aI52613653
aa(lp1267
I52718939
aI52721662
aa(lp1268
I53091481
aI53107084
aa(lp1269
I53342681
aI53377592
aa(lp1270
I53404545
aI53465199
aa(lp1271
I53604100
aI53607522
aa(lp1272
I54176634
aI54177803
aa(lp1273
I54208839
aI54209892
aa(lp1274
I54224788
aI54225841
aa(lp1275
I54993287
aI54993287
aa(lp1276
I55100132
aI55100132
aa(lp1277
I55465462
aI55487626
aa(lp1278
I55613363
aI55613363
aa(lp1279
I55720728
aI55735980
aa(lp1280
I56088943
aI56104638
aa(lp1281
I56441767
aI56449228
aa(lp1282
I56730485
aI56734973
aa(lp1283
I56769751
aI56770921
aa(lp1284
I56785959
aI56788815
aa(lp1285
I57347107
aI57347107
aa(lp1286
I57756196
aI57758920
aa(lp1287
I57789061
aI57790912
aa(lp1288
I57978349
aI57981949
aasS'chr21'
p1289
(lp1290
(lp1291
I447318
aI552115
aa(lp1292
I6284381
aI6284381
aa(lp1293
I6536705
aI6546631
aa(lp1294
I10401843
aI10466128
aa(lp1295
I10799966
aI10894158
aa(lp1296
I11659294
aI11692734
aa(lp1297
I19542645
aI19542645
aa(lp1298
I20592076
aI20592076
aa(lp1299
I21137001
aI21157640
aa(lp1300
I23033454
aI23037728
aa(lp1301
I23181394
aI23187000
aa(lp1302
I23240553
aI23240553
aa(lp1303
I23485452
aI23510228
aa(lp1304
I24282695
aI24288634
aa(lp1305
I24308333
aI24311064
aa(lp1306
I25597081
aI25597081
aa(lp1307
I25987766
aI25993796
aa(lp1308
I26076756
aI26077403
aa(lp1309
I26635475
aI26636507
aa(lp1310
I27320584
aI27321568
aa(lp1311
I27449265
aI27450207
aa(lp1312
I27651355
aI27652291
aa(lp1313
I28181545
aI28182839
aa(lp1314
I28187659
aI28188925
aa(lp1315
I28603901
aI28611124
aa(lp1316
I28640909
aI28654490
aa(lp1317
I28815754
aI28816735
aa(lp1318
I28902678
aI28903638
aa(lp1319
I28968884
aI28969847
aa(lp1320
I29136558
aI29137506
aa(lp1321
I29921763
aI29926974
aa(lp1322
I30222251
aI30223208
aa(lp1323
I30508242
aI30509187
aa(lp1324
I31492258
aI31493203
aa(lp1325
I32099823
aI32102717
aa(lp1326
I33472794
aI33473719
aa(lp1327
I33645544
aI33645544
aa(lp1328
I33661654
aI33684817
aa(lp1329
I34010954
aI34013039
aa(lp1330
I35033877
aI35074664
aa(lp1331
I36417317
aI36417783
aa(lp1332
I37659501
aI37660561
aa(lp1333
I37677218
aI37679889
aa(lp1334
I37808713
aI37811378
aa(lp1335
I37916341
aI37919134
aa(lp1336
I40273826
aI40315186
aa(lp1337
I40548002
aI40566490
aa(lp1338
I40647526
aI40650117
aa(lp1339
I40663910
aI40666415
aa(lp1340
I40845108
aI40890289
aa(lp1341
I43914055
aI43984747
aa(lp1342
I44016373
aI44054601
aa(lp1343
I44410898
aI44415739
aa(lp1344
I44427615
aI44440872
aa(lp1345
I48192669
aI48193413
aa(lp1346
I50309992
aI50309992
aa(lp1347
I50334928
aI50350565
aa(lp1348
I50450077
aI50456240
aa(lp1349
I50727884
aI50733427
aa(lp1350
I50752075
aI50752075
aasS'chrUn_JH374064'
p1351
(lp1352
(lp1353
I3580
aI3582
aasS'chrUn_JH374180'
p1354
(lp1355
(lp1356
I1597
aI4370
aasS'chr28'
p1357
(lp1358
(lp1359
I1932679
aI1987189
aa(lp1360
I2171436
aI2218766
aa(lp1361
I2295450
aI2296404
aa(lp1362
I2895914
aI2903518
aa(lp1363
I3948039
aI3978315
aa(lp1364
I4484710
aI4484710
aa(lp1365
I4705591
aI4705593
aa(lp1366
I6819441
aI6819443
aa(lp1367
I6844479
aI6967713
aa(lp1368
I7207212
aI7413212
aa(lp1369
I7801712
aI7820021
aa(lp1370
I8210057
aI8481765
aa(lp1371
I8727484
aI8750416
aa(lp1372
I12353091
aI12377942
aa(lp1373
I12670886
aI12739632
aa(lp1374
I14410730
aI14425438
aa(lp1375
I14940610
aI14940610
aa(lp1376
I14974211
aI14990355
aa(lp1377
I15765986
aI15765986
aa(lp1378
I15917048
aI15917048
aa(lp1379
I24908223
aI24909684
aa(lp1380
I27167898
aI27183045
aa(lp1381
I29396332
aI29403719
aa(lp1382
I29947997
aI29996625
aa(lp1383
I31305429
aI31406613
aa(lp1384
I37594018
aI37594018
aa(lp1385
I38204622
aI38427398
aa(lp1386
I40451655
aI40565395
aa(lp1387
I40842146
aI40842146
aa(lp1388
I41079170
aI41088954
aa(lp1389
I41168870
aI41168870
aasS'chr29'
p1390
(lp1391
(lp1392
I26552
aI243891
aa(lp1393
I307544
aI356894
aa(lp1394
I1154131
aI1156653
aa(lp1395
I5025785
aI5051879
aa(lp1396
I6125679
aI6135601
aa(lp1397
I10953430
aI11041558
aa(lp1398
I11968067
aI11994130
aa(lp1399
I14264445
aI14264445
aa(lp1400
I15832446
aI15833037
aa(lp1401
I16344894
aI16415531
aa(lp1402
I17818024
aI18197296
aa(lp1403
I18802896
aI18882957
aa(lp1404
I19671133
aI19703484
aa(lp1405
I21248530
aI21604557
aa(lp1406
I21881416
aI21884381
aa(lp1407
I26384492
aI26422575
aa(lp1408
I27185462
aI27188007
aa(lp1409
I29264126
aI29264126
aa(lp1410
I31858907
aI31868135
aa(lp1411
I31935225
aI31944727
aa(lp1412
I31959278
aI31974619
aa(lp1413
I32749841
aI32893053
aasS'chr7'
p1414
(lp1415
(lp1416
I26315
aI32931
aa(lp1417
I46016
aI72966
aa(lp1418
I235491
aI236873
aa(lp1419
I1530507
aI1572673
aa(lp1420
I1598552
aI1613203
aa(lp1421
I1924582
aI1966733
aa(lp1422
I4055526
aI4055526
aa(lp1423
I4055712
aI4055712
aa(lp1424
I5591544
aI5660854
aa(lp1425
I5933485
aI5937046
aa(lp1426
I6071378
aI6081220
aa(lp1427
I6588066
aI6588068
aa(lp1428
I6651395
aI6651397
aa(lp1429
I6651943
aI6651943
aa(lp1430
I6735888
aI6747991
aa(lp1431
I8090579
aI8090579
aa(lp1432
I8382176
aI8409564
aa(lp1433
I9812132
aI9831754
aa(lp1434
I14165645
aI14377534
aa(lp1435
I15732454
aI15739098
aa(lp1436
I15791822
aI15792596
aa(lp1437
I15982386
aI15998219
aa(lp1438
I16569220
aI16623837
aa(lp1439
I16915009
aI16944410
aa(lp1440
I19499196
aI19502983
aa(lp1441
I19669705
aI19674754
aa(lp1442
I20924794
aI20940643
aa(lp1443
I22598035
aI22598035
aa(lp1444
I23539426
aI23539426
aa(lp1445
I26336722
aI26344064
aa(lp1446
I26812824
aI26812824
aa(lp1447
I26818668
aI26818668
aa(lp1448
I27335431
aI27346259
aa(lp1449
I27599663
aI27618229
aa(lp1450
I27721461
aI27744043
aa(lp1451
I28888976
aI28895837
aa(lp1452
I28958566
aI28995603
aa(lp1453
I29464466
aI29487124
aa(lp1454
I29830460
aI29854358
aa(lp1455
I30209141
aI30233229
aa(lp1456
I30583755
aI30660569
aa(lp1457
I32941527
aI32994381
aa(lp1458
I34314894
aI34314894
aa(lp1459
I35996410
aI35996410
aa(lp1460
I37488190
aI37488190
aa(lp1461
I38147275
aI38163000
aa(lp1462
I38941393
aI38962988
aa(lp1463
I40516279
aI40525607
aa(lp1464
I41313938
aI41326121
aa(lp1465
I41509465
aI41509465
aa(lp1466
I41538530
aI41548423
aa(lp1467
I41702947
aI41719658
aa(lp1468
I41753205
aI41758647
aa(lp1469
I41795565
aI41800992
aa(lp1470
I41835321
aI41850488
aa(lp1471
I42263943
aI42271587
aa(lp1472
I42338542
aI42338542
aa(lp1473
I42340410
aI42344398
aa(lp1474
I42355284
aI42357564
aa(lp1475
I43037607
aI43037607
aa(lp1476
I43045231
aI43066043
aa(lp1477
I43149521
aI43150625
aa(lp1478
I43153024
aI43156400
aa(lp1479
I43428962
aI43430542
aa(lp1480
I43480714
aI43481794
aa(lp1481
I43494884
aI43495886
aa(lp1482
I43498995
aI43500871
aa(lp1483
I43541128
aI43541546
aa(lp1484
I45118241
aI45126904
aa(lp1485
I48663713
aI48800241
aa(lp1486
I54061721
aI54079520
aa(lp1487
I54262010
aI54262010
aa(lp1488
I58046782
aI58077836
aa(lp1489
I58162988
aI58193562
aa(lp1490
I58323323
aI58348175
aa(lp1491
I60736853
aI60949290
aa(lp1492
I64223657
aI64236669
aa(lp1493
I64764938
aI64802094
aa(lp1494
I66214438
aI66214438
aa(lp1495
I66217572
aI66217572
aa(lp1496
I66407424
aI66421076
aa(lp1497
I67458471
aI67483023
aa(lp1498
I67488038
aI67497290
aa(lp1499
I67536096
aI67558866
aa(lp1500
I80938160
aI80938160
aa(lp1501
I80938173
aI80938176
aa(lp1502
I80974011
aI80974011
aasS'chr35'
p1503
(lp1504
(lp1505
I7278992
aI7303145
aa(lp1506
I11809064
aI11814224
aa(lp1507
I13025743
aI13055207
aa(lp1508
I16920686
aI16921829
aa(lp1509
I16929627
aI16949736
aa(lp1510
I19156756
aI19773893
aa(lp1511
I20673987
aI20683782
aa(lp1512
I25620842
aI25630288
aa(lp1513
I25653700
aI25661708
aa(lp1514
I25772109
aI25773378
aasS'chr5'
p1515
(lp1516
(lp1517
I741230
aI747641
aa(lp1518
I1012958
aI1012958
aa(lp1519
I12047425
aI12047425
aa(lp1520
I12052881
aI12052881
aa(lp1521
I12097732
aI12097732
aa(lp1522
I14228351
aI14289095
aa(lp1523
I14506229
aI14507759
aa(lp1524
I14825002
aI14829452
aa(lp1525
I15404311
aI15415196
aa(lp1526
I15521624
aI15530605
aa(lp1527
I15801887
aI15804839
aa(lp1528
I15816088
aI15822626
aa(lp1529
I16308951
aI16315572
aa(lp1530
I16420966
aI16420966
aa(lp1531
I16744587
aI16746308
aa(lp1532
I19324445
aI19338047
aa(lp1533
I19782597
aI19794135
aa(lp1534
I19898820
aI20191995
aa(lp1535
I20984930
aI20995217
aa(lp1536
I21558160
aI21558160
aa(lp1537
I21558768
aI21558768
aa(lp1538
I24182508
aI24291586
aa(lp1539
I27133776
aI27147946
aa(lp1540
I27162838
aI27176964
aa(lp1541
I28918660
aI28932867
aa(lp1542
I28949654
aI28957915
aa(lp1543
I29187901
aI29195898
aa(lp1544
I29294703
aI29312315
aa(lp1545
I29325343
aI29337240
aa(lp1546
I30602624
aI30614633
aa(lp1547
I30821870
aI30824775
aa(lp1548
I31002857
aI31002857
aa(lp1549
I31682053
aI31683261
aa(lp1550
I32045510
aI32045510
aa(lp1551
I32045825
aI32045825
aa(lp1552
I32192340
aI32192340
aa(lp1553
I32238287
aI32243189
aa(lp1554
I32386993
aI32390713
aa(lp1555
I32473595
aI32481121
aa(lp1556
I32482747
aI32484569
aa(lp1557
I32495604
aI32500297
aa(lp1558
I32561405
aI32565144
aa(lp1559
I32715975
aI32715975
aa(lp1560
I32844493
aI32856975
aa(lp1561
I33152153
aI33157474
aa(lp1562
I34323816
aI34330405
aa(lp1563
I34696493
aI34723574
aa(lp1564
I34743453
aI34767076
aa(lp1565
I34781469
aI34806044
aa(lp1566
I34810924
aI34836026
aa(lp1567
I34914917
aI34936610
aa(lp1568
I39081134
aI39099242
aa(lp1569
I39884374
aI39908214
aa(lp1570
I40467967
aI40474081
aa(lp1571
I41262660
aI41262660
aa(lp1572
I41663857
aI41686260
aa(lp1573
I42181349
aI42194626
aa(lp1574
I42859151
aI42860474
aa(lp1575
I42891009
aI42891009
aa(lp1576
I43197364
aI43257558
aa(lp1577
I44688108
aI44753066
aa(lp1578
I44863636
aI44876424
aa(lp1579
I45184828
aI45184828
aa(lp1580
I45361196
aI45407466
aa(lp1581
I54500098
aI54510808
aa(lp1582
I55058360
aI55058729
aa(lp1583
I55082600
aI55098529
aa(lp1584
I55782303
aI55824608
aa(lp1585
I56368479
aI56368479
aa(lp1586
I56369152
aI56369152
aa(lp1587
I56370593
aI56370593
aa(lp1588
I56394912
aI56397465
aa(lp1589
I56421709
aI56422771
aa(lp1590
I56503719
aI56506883
aa(lp1591
I56621197
aI56650059
aa(lp1592
I56779849
aI56812134
aa(lp1593
I57395588
aI57395588
aa(lp1594
I57411594
aI57416395
aa(lp1595
I58112801
aI58112801
aa(lp1596
I59819656
aI59928617
aa(lp1597
I61432642
aI61432975
aa(lp1598
I62358539
aI62379580
aa(lp1599
I62485897
aI62485897
aa(lp1600
I63694295
aI63695249
aa(lp1601
I64534193
aI64562169
aa(lp1602
I64692864
aI64701056
aa(lp1603
I65313112
aI65343622
aa(lp1604
I75313316
aI75441967
aa(lp1605
I75504342
aI75507604
aa(lp1606
I77338355
aI77339495
aa(lp1607
I79808299
aI79926831
aa(lp1608
I80314810
aI80316244
aa(lp1609
I80759108
aI80834831
aa(lp1610
I81271340
aI81280664
aa(lp1611
I81533541
aI81555422
aa(lp1612
I82166270
aI82166270
aa(lp1613
I82196619
aI82201151
aa(lp1614
I82697173
aI82709333
aa(lp1615
I82709861
aI82726778
aasS'chr4'
p1616
(lp1617
(lp1618
I3549891
aI3567305
aa(lp1619
I4423961
aI4424537
aa(lp1620
I8702897
aI8702897
aa(lp1621
I15180212
aI15180212
aa(lp1622
I20518796
aI20531118
aa(lp1623
I21498259
aI21500792
aa(lp1624
I24158810
aI24164175
aa(lp1625
I24329497
aI24333893
aa(lp1626
I24523657
aI24532782
aa(lp1627
I26844980
aI27338273
aa(lp1628
I27886922
aI27893055
aa(lp1629
I34073429
aI34073429
aa(lp1630
I34544729
aI34578560
aa(lp1631
I36003148
aI36023263
aa(lp1632
I36951078
aI36951078
aa(lp1633
I37384485
aI37385565
aa(lp1634
I38002723
aI38007407
aa(lp1635
I39244462
aI39247163
aa(lp1636
I39385846
aI39409935
aa(lp1637
I40756781
aI40770088
aa(lp1638
I41539452
aI41545206
aa(lp1639
I43010838
aI43010838
aa(lp1640
I43182937
aI43182937
aa(lp1641
I50248654
aI50248654
aa(lp1642
I50474112
aI50474112
aa(lp1643
I50677254
aI50724977
aa(lp1644
I51183567
aI51193023
aa(lp1645
I53002994
aI53003696
aa(lp1646
I53018989
aI53032035
aa(lp1647
I53047022
aI53064055
aa(lp1648
I57600050
aI57608739
aa(lp1649
I58201521
aI58208954
aa(lp1650
I58663717
aI58667914
aa(lp1651
I58700201
aI58738637
aa(lp1652
I58788140
aI58793542
aa(lp1653
I58942397
aI58961840
aa(lp1654
I59104061
aI59163366
aa(lp1655
I59276406
aI59276406
aa(lp1656
I59533210
aI59533210
aa(lp1657
I59534589
aI59534589
aa(lp1658
I60049050
aI60050298
aa(lp1659
I66567138
aI66597310
aa(lp1660
I66956404
aI66963347
aa(lp1661
I67023861
aI67163479
aa(lp1662
I68555044
aI68557553
aa(lp1663
I68664699
aI68675615
aa(lp1664
I70328962
aI70376127
aa(lp1665
I71938154
aI72012317
aa(lp1666
I73840132
aI73867423
aa(lp1667
I75786429
aI75786429
aa(lp1668
I86390116
aI86921119
aa(lp1669
I86930021
aI86943559
aasS'chr3'
p1670
(lp1671
(lp1672
I240040
aI245017
aa(lp1673
I2867887
aI3249930
aa(lp1674
I13993007
aI14027527
aa(lp1675
I19997756
aI19997756
aa(lp1676
I26011399
aI26026586
aa(lp1677
I27870150
aI28034906
aa(lp1678
I28482110
aI28747525
aa(lp1679
I29801118
aI29810006
aa(lp1680
I31262490
aI31262490
aa(lp1681
I31546073
aI31547012
aa(lp1682
I31617378
aI31617378
aa(lp1683
I32684397
aI32684397
aa(lp1684
I37882759
aI37882759
aa(lp1685
I38997126
aI39076617
aa(lp1686
I39796710
aI39805591
aa(lp1687
I47593071
aI47654788
aa(lp1688
I51802515
aI51802515
aa(lp1689
I51995114
aI52031442
aa(lp1690
I52410900
aI52410900
aa(lp1691
I52504479
aI52526278
aa(lp1692
I52764872
aI52779516
aa(lp1693
I52807528
aI52865201
aa(lp1694
I52871190
aI52880681
aa(lp1695
I53941111
aI53980297
aa(lp1696
I54400528
aI54403196
aa(lp1697
I54579764
aI54579764
aa(lp1698
I54657879
aI54657879
aa(lp1699
I57914511
aI57914511
aa(lp1700
I58385229
aI58385229
aa(lp1701
I59867601
aI59867601
aa(lp1702
I60211717
aI60235444
aa(lp1703
I60906922
aI60915073
aa(lp1704
I64260749
aI64361969
aa(lp1705
I64530473
aI64577220
aa(lp1706
I69119209
aI69122455
aa(lp1707
I69305931
aI69347948
aa(lp1708
I69399362
aI69588365
aa(lp1709
I72122918
aI72132671
aa(lp1710
I72522626
aI72669755
aa(lp1711
I73494119
aI73494119
aa(lp1712
I73542254
aI73544624
aa(lp1713
I73568320
aI73570744
aa(lp1714
I83844414
aI83845836
aa(lp1715
I84010699
aI84019066
aa(lp1716
I84482535
aI84494756
aa(lp1717
I89044772
aI89044772
aa(lp1718
I91435701
aI91452282
aa(lp1719
I91522034
aI91534575
aa(lp1720
I91746725
aI91775357
aa(lp1721
I91887076
aI91887076
aasS'chr2'
p1722
(lp1723
(lp1724
I1755946
aI1805805
aa(lp1725
I4216804
aI4216806
aa(lp1726
I4601891
aI4601893
aa(lp1727
I5658143
aI5658143
aa(lp1728
I7365707
aI7450893
aa(lp1729
I10820184
aI10823338
aa(lp1730
I10830007
aI10833591
aa(lp1731
I18385658
aI18385658
aa(lp1732
I19362529
aI19382997
aa(lp1733
I19383090
aI19383090
aa(lp1734
I19483998
aI19615960
aa(lp1735
I19671639
aI19679230
aa(lp1736
I19784197
aI20041500
aa(lp1737
I23148729
aI23176071
aa(lp1738
I23186094
aI23206499
aa(lp1739
I23235810
aI23253235
aa(lp1740
I29894174
aI29944593
aa(lp1741
I30150768
aI30168957
aa(lp1742
I30674593
aI30689760
aa(lp1743
I34698934
aI34706980
aa(lp1744
I35454742
aI35519695
aa(lp1745
I35618510
aI35736814
aa(lp1746
I35742866
aI35744439
aa(lp1747
I38127203
aI38237426
aa(lp1748
I42285538
aI42365393
aa(lp1749
I42532344
aI42536858
aa(lp1750
I42542039
aI42542039
aa(lp1751
I42542177
aI42542177
aa(lp1752
I43218400
aI43248016
aa(lp1753
I43705510
aI43705857
aa(lp1754
I46497350
aI46497350
aa(lp1755
I50005276
aI50006548
aa(lp1756
I54390697
aI54406867
aa(lp1757
I54500368
aI54545106
aa(lp1758
I54608913
aI54636760
aa(lp1759
I56341884
aI56345554
aa(lp1760
I57407742
aI57407742
aa(lp1761
I57968954
aI57993107
aa(lp1762
I58577145
aI58639082
aa(lp1763
I59001629
aI59003976
aa(lp1764
I59022915
aI59031928
aa(lp1765
I59454151
aI59454151
aa(lp1766
I59608100
aI59608772
aa(lp1767
I59640975
aI59643331
aa(lp1768
I60236179
aI60265366
aa(lp1769
I60276726
aI60305792
aa(lp1770
I60319303
aI60362532
aa(lp1771
I64638165
aI64667224
aa(lp1772
I68288900
aI68322621
aa(lp1773
I71476574
aI71584259
aa(lp1774
I71881336
aI71897794
aa(lp1775
I71949546
aI71955748
aa(lp1776
I71975964
aI71975964
aa(lp1777
I72254368
aI72255400
aa(lp1778
I73055545
aI73101849
aa(lp1779
I73579847
aI73582637
aa(lp1780
I73699659
aI73701001
aa(lp1781
I74398767
aI74458016
aa(lp1782
I74466987
aI74503241
aa(lp1783
I75659043
aI75660126
aa(lp1784
I75665487
aI75676464
aa(lp1785
I75781258
aI75785591
aa(lp1786
I75880721
aI75881200
aa(lp1787
I76050717
aI76050717
aa(lp1788
I76198737
aI76199871
aa(lp1789
I77153280
aI77169945
aa(lp1790
I77561076
aI77574847
aa(lp1791
I78268539
aI78275540
aa(lp1792
I79719624
aI79738500
aa(lp1793
I80889151
aI80907706
aa(lp1794
I81158303
aI81189975
aa(lp1795
I82033799
aI82053334
aa(lp1796
I83553480
aI83581191
aa(lp1797
I83927408
aI83927408
aa(lp1798
I84269343
aI84274742
aa(lp1799
I84285047
aI84303828
aa(lp1800
I84320752
aI84343534
aa(lp1801
I84406491
aI84407799
aa(lp1802
I84472381
aI84472381
aa(lp1803
I85379979
aI85389069
aasS'chr1'
p1804
(lp1805
(lp1806
I5070956
aI5106645
aa(lp1807
I13734503
aI13900450
aa(lp1808
I14667697
aI14667697
aa(lp1809
I15184492
aI15234605
aa(lp1810
I16131828
aI16132827
aa(lp1811
I16469793
aI16472908
aa(lp1812
I17020638
aI17036079
aa(lp1813
I17593915
aI17593915
aa(lp1814
I20065495
aI20416955
aa(lp1815
I25678411
aI25696807
aa(lp1816
I26928381
aI26936545
aa(lp1817
I35734509
aI36221135
aa(lp1818
I40298036
aI40342064
aa(lp1819
I40442617
aI40457460
aa(lp1820
I42084186
aI42364306
aa(lp1821
I43972914
aI44037477
aa(lp1822
I44445123
aI44445123
aa(lp1823
I45129111
aI45186510
aa(lp1824
I48161361
aI48209897
aa(lp1825
I49030693
aI49030693
aa(lp1826
I49104264
aI49105244
aa(lp1827
I49161675
aI49260847
aa(lp1828
I49327620
aI49348271
aa(lp1829
I49497493
aI49535220
aa(lp1830
I51800308
aI51956788
aa(lp1831
I54183494
aI54192331
aa(lp1832
I55826475
aI55984578
aa(lp1833
I56402919
aI56427286
aa(lp1834
I58588103
aI58588262
aa(lp1835
I60941787
aI60942936
aa(lp1836
I62402781
aI62762513
aa(lp1837
I68145105
aI68262428
aa(lp1838
I71677669
aI71677669
aa(lp1839
I71678179
aI71678179
aa(lp1840
I71678406
aI71678406
aa(lp1841
I72280239
aI72447684
aa(lp1842
I75501684
aI75510192
aa(lp1843
I80733568
aI80927843
aa(lp1844
I84744443
aI84755507
aa(lp1845
I84940454
aI84994247
aa(lp1846
I86818553
aI86818553
aa(lp1847
I88126943
aI88163665
aa(lp1848
I88288710
aI88311193
aa(lp1849
I89063713
aI89120904
aa(lp1850
I91242074
aI91271886
aa(lp1851
I92898279
aI92976347
aa(lp1852
I93194382
aI93194382
aa(lp1853
I93500681
aI93505098
aa(lp1854
I93589450
aI93602921
aa(lp1855
I97902136
aI97902136
aa(lp1856
I97904008
aI97904008
aa(lp1857
I98604081
aI98604081
aa(lp1858
I102283341
aI102287303
aa(lp1859
I102310607
aI102311779
aa(lp1860
I102475284
aI102478256
aa(lp1861
I102686061
aI102690350
aa(lp1862
I103073624
aI103088916
aa(lp1863
I103406679
aI103406679
aa(lp1864
I103606582
aI103606582
aa(lp1865
I103711005
aI103715953
aa(lp1866
I103754427
aI103755378
aa(lp1867
I104785677
aI104785677
aa(lp1868
I105400332
aI105400332
aa(lp1869
I105400806
aI105400806
aa(lp1870
I105400984
aI105400984
aa(lp1871
I105812244
aI105816625
aa(lp1872
I105860959
aI105863765
aa(lp1873
I105868146
aI105873147
aa(lp1874
I105875277
aI105880737
aa(lp1875
I105891677
aI105894801
aa(lp1876
I105902146
aI105907585
aa(lp1877
I105914470
aI105922296
aa(lp1878
I105951701
aI105955175
aa(lp1879
I105981255
aI105984414
aa(lp1880
I106009128
aI106028286
aa(lp1881
I106998812
aI106998812
aa(lp1882
I107000344
aI107002841
aa(lp1883
I107010693
aI107014169
aa(lp1884
I107015238
aI107024674
aa(lp1885
I107121694
aI107121694
aa(lp1886
I107371354
aI107376987
aa(lp1887
I107382854
aI107383951
aa(lp1888
I107418622
aI107419717
aa(lp1889
I107423395
aI107426410
aa(lp1890
I107434362
aI107445068
aa(lp1891
I107518539
aI107536702
aa(lp1892
I107690044
aI107694548
aa(lp1893
I108161284
aI108187087
aa(lp1894
I108255986
aI108258717
aa(lp1895
I108287467
aI108289519
aa(lp1896
I108660555
aI108675386
aa(lp1897
I108953598
aI109034136
aa(lp1898
I109150306
aI109160789
aa(lp1899
I109618465
aI109618465
aa(lp1900
I109891301
aI109896621
aa(lp1901
I109922226
aI109922226
aa(lp1902
I110050963
aI110062782
aa(lp1903
I110088685
aI110092818
aa(lp1904
I110212436
aI110218594
aa(lp1905
I110504953
aI110505857
aa(lp1906
I110520316
aI110522381
aa(lp1907
I110652583
aI110660334
aa(lp1908
I111442320
aI111443715
aa(lp1909
I111548884
aI111571731
aa(lp1910
I111712207
aI111728453
aa(lp1911
I111745441
aI111755876
aa(lp1912
I111769510
aI111780409
aa(lp1913
I111812681
aI111834711
aa(lp1914
I111902536
aI111917449
aa(lp1915
I112274170
aI112321081
aa(lp1916
I112351489
aI112353898
aa(lp1917
I112411528
aI112414733
aa(lp1918
I112458238
aI112490823
aa(lp1919
I112629520
aI112643748
aa(lp1920
I112817566
aI112832152
aa(lp1921
I112900507
aI112906745
aa(lp1922
I112932245
aI112938248
aa(lp1923
I113006955
aI113011837
aa(lp1924
I113031437
aI113031437
aa(lp1925
I113388851
aI113406769
aa(lp1926
I113492936
aI113493836
aa(lp1927
I114292754
aI114300477
aa(lp1928
I114699728
aI114727458
aa(lp1929
I116757371
aI116760286
aa(lp1930
I116831816
aI116842636
aa(lp1931
I116887291
aI116888192
aa(lp1932
I117103953
aI117116418
aa(lp1933
I117167477
aI117170522
aa(lp1934
I117305531
aI117306565
aa(lp1935
I117436512
aI117439287
aa(lp1936
I117504553
aI117510667
aa(lp1937
I119061654
aI119118338
aa(lp1938
I119206522
aI119228999
aa(lp1939
I122413146
aI122413146
aasS'chr34'
p1940
(lp1941
(lp1942
I4537631
aI4538525
aa(lp1943
I7120506
aI7144648
aa(lp1944
I11210938
aI11245456
aa(lp1945
I11288668
aI11307038
aa(lp1946
I11523840
aI11539792
aa(lp1947
I12372968
aI12372968
aa(lp1948
I16857990
aI16942871
aa(lp1949
I17073426
aI17079971
aa(lp1950
I19157210
aI19163310
aa(lp1951
I19406610
aI19408430
aa(lp1952
I20063243
aI20064445
aa(lp1953
I20113374
aI20123822
aa(lp1954
I20971578
aI20971578
aa(lp1955
I26125528
aI26133017
aa(lp1956
I26460722
aI26460722
aa(lp1957
I26460871
aI26460871
aa(lp1958
I30912896
aI30971387
aa(lp1959
I33292588
aI33292588
aa(lp1960
I36691131
aI36694302
aa(lp1961
I36719248
aI36734989
aasS'chrUn_JH373475'
p1962
(lp1963
(lp1964
I25921
aI25923
aa(lp1965
I34265
aI34265
aa(lp1966
I45926
aI45928
aasS'chr37'
p1967
(lp1968
(lp1969
I430544
aI435046
aa(lp1970
I729171
aI734255
aa(lp1971
I9838071
aI9901097
aa(lp1972
I9913812
aI9989040
aa(lp1973
I10391055
aI10401820
aa(lp1974
I11201026
aI11229645
aa(lp1975
I12503977
aI12532538
aa(lp1976
I12647770
aI12652776
aa(lp1977
I12712879
aI12733076
aa(lp1978
I16424946
aI16433475
aa(lp1979
I16440868
aI16442794
aa(lp1980
I16453743
aI16455542
aa(lp1981
I23038511
aI23067285
aa(lp1982
I24843170
aI24844247
aa(lp1983
I24944041
aI24948495
aa(lp1984
I25039202
aI25047084
aa(lp1985
I25054543
aI25054543
aa(lp1986
I25095369
aI25176647
aa(lp1987
I25568121
aI25568121
aa(lp1988
I25734849
aI25734849
aa(lp1989
I25933524
aI25939910
aa(lp1990
I25947920
aI26004702
aa(lp1991
I26136623
aI26149066
aa(lp1992
I30320558
aI30320558
aa(lp1993
I30874288
aI30884232
aasS'chr9'
p1994
(lp1995
(lp1996
I499551
aI513272
aa(lp1997
I527989
aI528889
aa(lp1998
I635984
aI637593
aa(lp1999
I918710
aI918710
aa(lp2000
I1540932
aI1546725
aa(lp2001
I2521883
aI2533882
aa(lp2002
I2859266
aI2859944
aa(lp2003
I2930451
aI2935397
aa(lp2004
I2973483
aI2976758
aa(lp2005
I3776877
aI3776877
aa(lp2006
I4101064
aI4123624
aa(lp2007
I4154684
aI4165054
aa(lp2008
I4186197
aI4188667
aa(lp2009
I4191304
aI4200130
aa(lp2010
I4229459
aI4237721
aa(lp2011
I4239283
aI4240707
aa(lp2012
I4378848
aI4378848
aa(lp2013
I4555298
aI4558599
aa(lp2014
I4567633
aI4603651
aa(lp2015
I4768992
aI4801213
aa(lp2016
I4818568
aI4824719
aa(lp2017
I5298480
aI5310592
aa(lp2018
I5321791
aI5339681
aa(lp2019
I5662499
aI5679537
aa(lp2020
I6999085
aI7000195
aa(lp2021
I8275048
aI8278172
aa(lp2022
I9182580
aI9231046
aa(lp2023
I9429719
aI9429719
aa(lp2024
I9572431
aI9618438
aa(lp2025
I10289039
aI10289041
aa(lp2026
I11832364
aI11834069
aa(lp2027
I12301008
aI12307144
aa(lp2028
I14082660
aI14095090
aa(lp2029
I15049137
aI15114395
aa(lp2030
I16436629
aI16437889
aa(lp2031
I16474438
aI16475722
aa(lp2032
I18686526
aI18687717
aa(lp2033
I19050147
aI19063796
aa(lp2034
I19146542
aI19157824
aa(lp2035
I19394996
aI19395605
aa(lp2036
I19960909
aI20024390
aa(lp2037
I20063566
aI20066633
aa(lp2038
I20134401
aI20143577
aa(lp2039
I20223108
aI20223775
aa(lp2040
I20358886
aI20363429
aa(lp2041
I20730780
aI20731976
aa(lp2042
I20772107
aI20776116
aa(lp2043
I21039841
aI21051940
aa(lp2044
I21099693
aI21101476
aa(lp2045
I21190730
aI21194901
aa(lp2046
I21240777
aI21244692
aa(lp2047
I21249886
aI21253866
aa(lp2048
I21261382
aI21265302
aa(lp2049
I21394084
aI21400079
aa(lp2050
I21413519
aI21418028
aa(lp2051
I21710268
aI21715317
aa(lp2052
I21751417
aI21767171
aa(lp2053
I21824025
aI21829216
aa(lp2054
I21876475
aI21885381
aa(lp2055
I21899623
aI21904687
aa(lp2056
I21924296
aI21929530
aa(lp2057
I21940538
aI21947223
aa(lp2058
I22000981
aI22008152
aa(lp2059
I22156231
aI22156231
aa(lp2060
I22255360
aI22277134
aa(lp2061
I22472625
aI22481874
aa(lp2062
I22761030
aI22785138
aa(lp2063
I22793853
aI22806321
aa(lp2064
I22812250
aI22812977
aa(lp2065
I23171601
aI23175554
aa(lp2066
I23397258
aI23403005
aa(lp2067
I23474527
aI23484368
aa(lp2068
I24335219
aI24335219
aa(lp2069
I24842233
aI24842233
aa(lp2070
I24895756
aI24895756
aa(lp2071
I25286982
aI25287162
aa(lp2072
I25371206
aI25371838
aa(lp2073
I25526648
aI25535003
aa(lp2074
I26184076
aI26199839
aa(lp2075
I26316811
aI26329333
aa(lp2076
I26992841
aI26998691
aa(lp2077
I27002492
aI27005600
aa(lp2078
I29271701
aI29272262
aa(lp2079
I32760963
aI32760963
aa(lp2080
I32977455
aI32977455
aa(lp2081
I33714261
aI33714261
aa(lp2082
I33724655
aI33724655
aa(lp2083
I34340609
aI34340609
aa(lp2084
I34356788
aI34385415
aa(lp2085
I35166352
aI35191932
aa(lp2086
I37681341
aI37682691
aa(lp2087
I37693710
aI37695137
aa(lp2088
I37708811
aI37710110
aa(lp2089
I37817457
aI37823414
aa(lp2090
I38934057
aI38936698
aa(lp2091
I38938943
aI38940231
aa(lp2092
I38949183
aI38950702
aa(lp2093
I38994637
aI38996103
aa(lp2094
I39008509
aI39009931
aa(lp2095
I40096286
aI40100321
aa(lp2096
I40612682
aI40612682
aa(lp2097
I41303202
aI41303202
aa(lp2098
I41316536
aI41316536
aa(lp2099
I42154753
aI42169752
aa(lp2100
I42172320
aI42208588
aa(lp2101
I42599063
aI42607525
aa(lp2102
I42779054
aI42781277
aa(lp2103
I43030931
aI43030931
aa(lp2104
I43031094
aI43031094
aa(lp2105
I43372507
aI43378466
aa(lp2106
I44155971
aI44155971
aa(lp2107
I44224936
aI44246981
aa(lp2108
I45852593
aI45852593
aa(lp2109
I45895329
aI45902636
aa(lp2110
I46153590
aI46153590
aa(lp2111
I46153974
aI46153974
aa(lp2112
I47120639
aI47121569
aa(lp2113
I47283327
aI47283534
aa(lp2114
I47316978
aI47317920
aa(lp2115
I47405721
aI47431893
aa(lp2116
I47792083
aI47792083
aa(lp2117
I48492966
aI48513981
aa(lp2118
I48607636
aI48608704
aa(lp2119
I48647779
aI48650555
aa(lp2120
I48879496
aI48879496
aa(lp2121
I49248642
aI49254118
aa(lp2122
I49618131
aI49621673
aa(lp2123
I49707504
aI49709999
aa(lp2124
I49748692
aI49758237
aa(lp2125
I49783690
aI49786271
aa(lp2126
I49839361
aI49867004
aa(lp2127
I50004813
aI50023670
aa(lp2128
I51275044
aI51283250
aa(lp2129
I54071522
aI54081921
aa(lp2130
I54627909
aI54627909
aa(lp2131
I55139171
aI55139171
aa(lp2132
I55252879
aI55298128
aa(lp2133
I55343516
aI55348927
aa(lp2134
I55543244
aI55547848
aa(lp2135
I55895024
aI55898774
aa(lp2136
I55921888
aI55928613
aa(lp2137
I58301373
aI58301373
aa(lp2138
I58302606
aI58302606
aa(lp2139
I58529739
aI58592877
aa(lp2140
I60195884
aI60216750
aa(lp2141
I61020691
aI61040614
aasS'chr8'
p2142
(lp2143
(lp2144
I611593
aI612553
aa(lp2145
I705869
aI706796
aa(lp2146
I3432089
aI3479207
aa(lp2147
I3570323
aI3571501
aa(lp2148
I3581389
aI3585485
aa(lp2149
I3629880
aI3653420
aa(lp2150
I3660154
aI3677650
aa(lp2151
I4046625
aI4058077
aa(lp2152
I4229613
aI4241639
aa(lp2153
I4438418
aI4441158
aa(lp2154
I13809890
aI13837317
aa(lp2155
I16572109
aI16573285
aa(lp2156
I17354030
aI17360378
aa(lp2157
I26224010
aI26224010
aa(lp2158
I26243701
aI26244022
aa(lp2159
I26423220
aI26423220
aa(lp2160
I27264971
aI27307767
aa(lp2161
I28523341
aI28535523
aa(lp2162
I29997819
aI30000032
aa(lp2163
I30983668
aI30994559
aa(lp2164
I32848352
aI32848352
aa(lp2165
I34810902
aI34835082
aa(lp2166
I35676704
aI35679534
aa(lp2167
I36614334
aI36655522
aa(lp2168
I38950269
aI38959227
aa(lp2169
I39018671
aI39019091
aa(lp2170
I39169471
aI39221137
aa(lp2171
I39322363
aI39325817
aa(lp2172
I39825468
aI39971954
aa(lp2173
I41588157
aI41619112
aa(lp2174
I44006690
aI44032009
aa(lp2175
I44045112
aI44078962
aa(lp2176
I46506258
aI46568412
aa(lp2177
I47641944
aI47650473
aa(lp2178
I48155623
aI48163476
aa(lp2179
I50081959
aI50086071
aa(lp2180
I52686255
aI52695080
aa(lp2181
I53327341
aI53480833
aa(lp2182
I53823810
aI53823810
aa(lp2183
I59268448
aI59324825
aa(lp2184
I60061731
aI60114941
aa(lp2185
I61272397
aI61285660
aa(lp2186
I63388560
aI63393701
aa(lp2187
I64998714
aI65003081
aa(lp2188
I65025722
aI65026775
aa(lp2189
I68424718
aI68424718
aa(lp2190
I68592506
aI68592506
aa(lp2191
I69094412
aI69094412
aa(lp2192
I69097971
aI69097971
aa(lp2193
I69103911
aI69103911
aa(lp2194
I69104997
aI69104997
aa(lp2195
I69106501
aI69106501
aa(lp2196
I69106670
aI69106670
aa(lp2197
I69132864
aI69132864
aa(lp2198
I69253866
aI69253866
aa(lp2199
I69255151
aI69255151
aa(lp2200
I69255610
aI69255610
aa(lp2201
I69256820
aI69256820
aa(lp2202
I69257549
aI69257549
aa(lp2203
I69257862
aI69257862
aa(lp2204
I69258607
aI69258607
aa(lp2205
I69258914
aI69258914
aa(lp2206
I69261465
aI69261465
aa(lp2207
I69263463
aI69263463
aa(lp2208
I69265226
aI69265226
aa(lp2209
I69267274
aI69267274
aa(lp2210
I69269810
aI69269810
aa(lp2211
I69270184
aI69270184
aa(lp2212
I69270556
aI69270556
aa(lp2213
I69270956
aI69270956
aa(lp2214
I69271316
aI69271316
aa(lp2215
I69271892
aI69271892
aa(lp2216
I69273332
aI69273332
aa(lp2217
I69275057
aI69275057
aa(lp2218
I69275553
aI69275553
aa(lp2219
I69276386
aI69276386
aa(lp2220
I69276980
aI69276980
aa(lp2221
I69277744
aI69277744
aa(lp2222
I69281157
aI69281157
aa(lp2223
I69283179
aI69283179
aa(lp2224
I69283568
aI69283568
aa(lp2225
I69284297
aI69284297
aa(lp2226
I69289507
aI69289507
aa(lp2227
I69291005
aI69291005
aa(lp2228
I69293835
aI69293835
aa(lp2229
I69294128
aI69294128
aa(lp2230
I69294432
aI69294432
aa(lp2231
I69696924
aI69697839
aa(lp2232
I70473009
aI70807686
aa(lp2233
I71774340
aI71774340
aasS'chr36'
p2234
(lp2235
(lp2236
I1546530
aI1546530
aa(lp2237
I7545113
aI7550862
aa(lp2238
I13746963
aI13823634
aa(lp2239
I15351288
aI15391701
aa(lp2240
I18726242
aI18742501
aa(lp2241
I19959013
aI19959013
aa(lp2242
I21115617
aI21115617
aa(lp2243
I25256451
aI25492107
aa(lp2244
I28730212
aI28743268
aa(lp2245
I29459394
aI29487025
aasS'chrUn_AAEX03020335'
p2246
(lp2247
(lp2248
I34174
aI35221
aa(lp2249
I41206
aI42220
aasS'chrUn_AAEX03025873'
p2250
(lp2251
(lp2252
I505
aI1326
aasS'chr31'
p2253
(lp2254
(lp2255
I769579
aI785660
aa(lp2256
I13258840
aI13258840
aa(lp2257
I13259588
aI13259588
aa(lp2258
I13305040
aI13305040
aa(lp2259
I21078828
aI21078828
aa(lp2260
I21352315
aI21614319
aa(lp2261
I26540292
aI26544206
aa(lp2262
I27310405
aI27398020
aa(lp2263
I27460092
aI27460752
aa(lp2264
I28632855
aI28635012
aa(lp2265
I29530792
aI29532949
aa(lp2266
I29777153
aI29777525
aa(lp2267
I31005289
aI31005289
aa(lp2268
I35860667
aI35882794
aa(lp2269
I35906327
aI35929229
aa(lp2270
I36638795
aI36641654
aa(lp2271
I36665694
aI36668415
aa(lp2272
I36681507
aI36684540
aa(lp2273
I36735837
aI36778002
aa(lp2274
I37307130
aI37309715
aasS'chrUn_AAEX03024228'
p2275
(lp2276
(lp2277
I2348
aI2348
aasS'chr30'
p2278
(lp2279
(lp2280
I3219485
aI3219485
aa(lp2281
I7256466
aI7259080
aa(lp2282
I7849132
aI7876926
aa(lp2283
I8859327
aI8865383
aa(lp2284
I8868335
aI8876307
aa(lp2285
I10535557
aI10537175
aa(lp2286
I11331777
aI11336463
aa(lp2287
I11557984
aI11587554
aa(lp2288
I11725359
aI11742135
aa(lp2289
I11800706
aI11800706
aa(lp2290
I14641884
aI14863966
aa(lp2291
I15556198
aI15606468
aa(lp2292
I16018543
aI16018543
aa(lp2293
I16957223
aI16988347
aa(lp2294
I20635672
aI20661109
aa(lp2295
I20769803
aI20769803
aa(lp2296
I23076191
aI23170341
aa(lp2297
I23450651
aI23583722
aa(lp2298
I24040982
aI24062924
aa(lp2299
I25176844
aI25210244
aa(lp2300
I27433206
aI27433206
aa(lp2301
I29123670
aI29126513
aa(lp2302
I30200944
aI30218165
aa(lp2303
I30683246
aI30759560
aa(lp2304
I30766980
aI30771751
aa(lp2305
I31246314
aI31359936
aa(lp2306
I32247764
aI32264180
aa(lp2307
I32741778
aI32778883
aa(lp2308
I32954063
aI32983106
aa(lp2309
I34376198
aI34421606
aa(lp2310
I37819354
aI37824078
aa(lp2311
I37957004
aI37967988
aa(lp2312
I38216610
aI38216610
aas.